Archive member included because of file (symbol)

c:/program files/microchip/xc32/v2.41/bin/bin/../../lib/gcc/pic32mx/4.8.3/../../../../pic32mx/lib\libmchp_peripheral.a(read_core_timer_lib.o)
                              build/default/production/_ext/536368125/ETHPIC32ExtPhy.o (ReadCoreTimer)
c:/program files/microchip/xc32/v2.41/bin/bin/../../lib/gcc/pic32mx/4.8.3/../../../../pic32mx/lib\libmchp_peripheral_32MX795F512L.a(eth_ack_packet_lib.o)
                              build/default/production/_ext/536368125/ETHPIC32IntMac.o (EthRxAcknowledgeBuffer)
c:/program files/microchip/xc32/v2.41/bin/bin/../../lib/gcc/pic32mx/4.8.3/../../../../pic32mx/lib\libmchp_peripheral_32MX795F512L.a(eth_descriptors_add_lib.o)
                              c:/program files/microchip/xc32/v2.41/bin/bin/../../lib/gcc/pic32mx/4.8.3/../../../../pic32mx/lib\libmchp_peripheral_32MX795F512L.a(eth_ack_packet_lib.o) (_EthTxFreeList)
c:/program files/microchip/xc32/v2.41/bin/bin/../../lib/gcc/pic32mx/4.8.3/../../../../pic32mx/lib\libmchp_peripheral_32MX795F512L.a(eth_init_lib.o)
                              build/default/production/_ext/536368125/ETHPIC32IntMac.o (EthInit)
c:/program files/microchip/xc32/v2.41/bin/bin/../../lib/gcc/pic32mx/4.8.3/../../../../pic32mx/lib\libmchp_peripheral_32MX795F512L.a(eth_mac_open_lib.o)
                              build/default/production/_ext/536368125/ETHPIC32IntMac.o (EthMACOpen)
c:/program files/microchip/xc32/v2.41/bin/bin/../../lib/gcc/pic32mx/4.8.3/../../../../pic32mx/lib\libmchp_peripheral_32MX795F512L.a(eth_mac_set_address_max_lib.o)
                              build/default/production/_ext/536368125/ETHPIC32IntMac.o (EthMACSetAddress)
c:/program files/microchip/xc32/v2.41/bin/bin/../../lib/gcc/pic32mx/4.8.3/../../../../pic32mx/lib\libmchp_peripheral_32MX795F512L.a(eth_rx_buffers_append_lib.o)
                              build/default/production/_ext/536368125/ETHPIC32IntMac.o (EthRxBuffersAppend)
c:/program files/microchip/xc32/v2.41/bin/bin/../../lib/gcc/pic32mx/4.8.3/../../../../pic32mx/lib\libmchp_peripheral_32MX795F512L.a(eth_rx_filters_lib.o)
                              build/default/production/_ext/536368125/ETHPIC32IntMac.o (EthRxFiltersSet)
c:/program files/microchip/xc32/v2.41/bin/bin/../../lib/gcc/pic32mx/4.8.3/../../../../pic32mx/lib\libmchp_peripheral_32MX795F512L.a(eth_rx_get_packet_lib.o)
                              build/default/production/_ext/536368125/ETHPIC32IntMac.o (EthRxGetBuffer)
c:/program files/microchip/xc32/v2.41/bin/bin/../../lib/gcc/pic32mx/4.8.3/../../../../pic32mx/lib\libmchp_peripheral_32MX795F512L.a(eth_rx_set_buffer_size_lib.o)
                              build/default/production/_ext/536368125/ETHPIC32IntMac.o (EthRxSetBufferSize)
c:/program files/microchip/xc32/v2.41/bin/bin/../../lib/gcc/pic32mx/4.8.3/../../../../pic32mx/lib\libmchp_peripheral_32MX795F512L.a(eth_tx_packet_lib.o)
                              build/default/production/_ext/536368125/ETHPIC32IntMac.o (EthTxSendBuffer)
c:/program files/microchip/xc32/v2.41/bin/bin/../../lib/gcc/pic32mx/4.8.3/../../../../pic32mx/lib\libmchp_peripheral_32MX795F512L.a(_eth_append_busy_list_lib.o)
                              c:/program files/microchip/xc32/v2.41/bin/bin/../../lib/gcc/pic32mx/4.8.3/../../../../pic32mx/lib\libmchp_peripheral_32MX795F512L.a(eth_ack_packet_lib.o) (_EthAppendBusyList)
c:/program files/microchip/xc32/v2.41/bin/bin/../../lib/gcc/pic32mx/4.8.3/../../../../pic32mx/lib\libmchp_peripheral_32MX795F512L.a(eth_miim_access.o)
                              build/default/production/_ext/536368125/ETHPIC32ExtPhy.o (EthMIIMReadStart)
c:/program files/microchip/xc32/v2.41/bin/bin/../../lib/gcc/pic32mx/4.8.3/../../../../pic32mx/lib\libmchp_peripheral_32MX795F512L.a(pcache.o)
                              build/default/production/_ext/1472/MainDemo.o (CheKseg0CacheOn)
c:/program files/microchip/xc32/v2.41/bin/bin/../../lib/gcc/pic32mx/4.8.3/../../../../pic32mx/lib\libmchp_peripheral_32MX795F512L.a(int_disable_interrupts_lib.o)
                              build/default/production/_ext/1472/MainDemo.o (INTDisableInterrupts)
c:/program files/microchip/xc32/v2.41/bin/bin/../../lib/gcc/pic32mx/4.8.3/../../../../pic32mx/lib\libmchp_peripheral_32MX795F512L.a(int_restore_interrupts_lib.o)
                              build/default/production/_ext/1472/MainDemo.o (INTRestoreInterrupts)
c:/program files/microchip/xc32/v2.41/bin/bin/../../lib/gcc/pic32mx/4.8.3/../../../../pic32mx/lib\libmchp_peripheral_32MX795F512L.a(int_enable_mv_int_lib.o)
                              build/default/production/_ext/1472/MainDemo.o (INTEnableSystemMultiVectoredInt)
c:/program files/microchip/xc32/v2.41/bin/bin/../../lib/gcc/pic32mx/4.8.3/../../../../pic32mx/lib\libmchp_peripheral_32MX795F512L.a(int_tbl_lib.o)
                              c:/program files/microchip/xc32/v2.41/bin/bin/../../lib/gcc/pic32mx/4.8.3/../../../../pic32mx/lib\libmchp_peripheral_32MX795F512L.a(eth_init_lib.o) (INTClearFlag)
c:/program files/microchip/xc32/v2.41/bin/bin/../../lib/gcc/pic32mx/4.8.3/../../../../pic32mx/lib\libmchp_peripheral_32MX795F512L.a(port_set_pins_digital_in_lib.o)
                              build/default/production/_ext/536368125/ETHPIC32ExtPhy.o (PORTSetPinsDigitalIn)
c:/program files/microchip/xc32/v2.41/bin/bin/../../lib/gcc/pic32mx/4.8.3/../../../../pic32mx/lib\libmchp_peripheral_32MX795F512L.a(port_set_pins_digital_out_lib.o)
                              build/default/production/_ext/536368125/ETHPIC32ExtPhy.o (PORTSetPinsDigitalOut)
c:/program files/microchip/xc32/v2.41/bin/bin/../../lib/gcc/pic32mx/4.8.3/../../../../pic32mx/lib\libmchp_peripheral_32MX795F512L.a(port_clear_bits_lib.o)
                              build/default/production/_ext/1472/MainDemo.o (PORTClearBits)
c:/program files/microchip/xc32/v2.41/bin/bin/../../lib/gcc/pic32mx/4.8.3/../../../../pic32mx/lib\libmchp_peripheral_32MX795F512L.a(port_set_bits_lib.o)
                              build/default/production/_ext/1472/MainDemo.o (PORTSetBits)
c:/program files/microchip/xc32/v2.41/bin/bin/../../lib/gcc/pic32mx/4.8.3/../../../../pic32mx/lib\libmchp_peripheral_32MX795F512L.a(_ports_tbl_libp.o)
                              c:/program files/microchip/xc32/v2.41/bin/bin/../../lib/gcc/pic32mx/4.8.3/../../../../pic32mx/lib\libmchp_peripheral_32MX795F512L.a(port_set_pins_digital_in_lib.o) (PortRegTbl)
c:/program files/microchip/xc32/v2.41/bin/bin/../../lib/gcc/pic32mx/4.8.3/../../../../pic32mx/lib\libmchp_peripheral_32MX795F512L.a(int_enable_interrupts_lib.o)
                              c:/program files/microchip/xc32/v2.41/bin/bin/../../lib/gcc/pic32mx/4.8.3/../../../../pic32mx/lib\libmchp_peripheral_32MX795F512L.a(int_enable_mv_int_lib.o) (INTEnableInterrupts)
c:/program files/microchip/xc32/v2.41/bin/bin/../../lib/gcc/pic32mx/4.8.3\libgcc.a(_udivdi3.o)
                              build/default/production/_ext/536368125/Tick.o (__udivdi3)
c:/program files/microchip/xc32/v2.41/bin/bin/../../lib/gcc/pic32mx/4.8.3/../../../../pic32mx/lib\libpic32.a(memcmp.o)
                              build/default/production/_ext/536368125/ETHPIC32IntMac.o (memcmp)
c:/program files/microchip/xc32/v2.41/bin/bin/../../lib/gcc/pic32mx/4.8.3/../../../../pic32mx/lib\libpic32.a(memcpy.o)
                              build/default/production/_ext/536368125/ETHPIC32IntMac.o (memcpy)
c:/program files/microchip/xc32/v2.41/bin/bin/../../lib/gcc/pic32mx/4.8.3/../../../../pic32mx/lib\libpic32.a(memset.o)
                              build/default/production/_ext/536368125/DHCPs.o (memset)
c:/program files/microchip/xc32/v2.41/bin/bin/../../lib/gcc/pic32mx/4.8.3/../../../../pic32mx/lib\libpic32.a(strlen.o)
                              build/default/production/_ext/536368125/Helpers.o (strlen)
c:/program files/microchip/xc32/v2.41/bin/bin/../../lib/gcc/pic32mx/4.8.3/../../../../pic32mx/lib\libpic32.a(default-bootstrap-exception-handler.o)
                              C:\Users\kamer\AppData\Local\Temp\ccD0dtMf.o (_bootstrap_exception_handler)
c:/program files/microchip/xc32/v2.41/bin/bin/../../lib/gcc/pic32mx/4.8.3/../../../../pic32mx/lib\libpic32.a(default-on-reset.o)
                              C:\Users\kamer\AppData\Local\Temp\ccD0dtMf.o (_on_reset)
c:/program files/microchip/xc32/v2.41/bin/bin/../../lib/gcc/pic32mx/4.8.3/../../../../pic32mx/lib\libpic32.a(default-on-bootstrap.o)
                              C:\Users\kamer\AppData\Local\Temp\ccD0dtMf.o (_on_bootstrap)
c:/program files/microchip/xc32/v2.41/bin/bin/../../lib/gcc/pic32mx/4.8.3/../../../../pic32mx/lib\libpic32.a(default-nmi-handler.o)
                              C:\Users\kamer\AppData\Local\Temp\ccD0dtMf.o (_nmi_handler)
c:/program files/microchip/xc32/v2.41/bin/bin/../../lib/gcc/pic32mx/4.8.3/../../../../pic32mx/lib\libpic32.a(pic32_data_init.o)
                              C:\Users\kamer\AppData\Local\Temp\ccD0dtMf.o (__pic32_data_init)
c:/program files/microchip/xc32/v2.41/bin/bin/../../lib/gcc/pic32mx/4.8.3/../../../../pic32mx/lib\libpic32.a(general-exception.o)
                              C:\Users\kamer\AppData\Local\Temp\ccD0dtMf.o (_general_exception_context)
c:/program files/microchip/xc32/v2.41/bin/bin/../../lib/gcc/pic32mx/4.8.3/../../../../pic32mx/lib\libpic32.a(vector0.o)
                              C:\Users\kamer\AppData\Local\Temp\ccmieHzo.o (__vector_dispatch_0)
c:/program files/microchip/xc32/v2.41/bin/bin/../../lib/gcc/pic32mx/4.8.3/../../../../pic32mx/lib\libpic32.a(vector1.o)
                              C:\Users\kamer\AppData\Local\Temp\ccmieHzo.o (__vector_dispatch_1)
c:/program files/microchip/xc32/v2.41/bin/bin/../../lib/gcc/pic32mx/4.8.3/../../../../pic32mx/lib\libpic32.a(vector2.o)
                              C:\Users\kamer\AppData\Local\Temp\ccmieHzo.o (__vector_dispatch_2)
c:/program files/microchip/xc32/v2.41/bin/bin/../../lib/gcc/pic32mx/4.8.3/../../../../pic32mx/lib\libpic32.a(vector3.o)
                              C:\Users\kamer\AppData\Local\Temp\ccmieHzo.o (__vector_dispatch_3)
c:/program files/microchip/xc32/v2.41/bin/bin/../../lib/gcc/pic32mx/4.8.3/../../../../pic32mx/lib\libpic32.a(vector5.o)
                              C:\Users\kamer\AppData\Local\Temp\ccmieHzo.o (__vector_dispatch_5)
c:/program files/microchip/xc32/v2.41/bin/bin/../../lib/gcc/pic32mx/4.8.3/../../../../pic32mx/lib\libpic32.a(vector6.o)
                              C:\Users\kamer\AppData\Local\Temp\ccmieHzo.o (__vector_dispatch_6)
c:/program files/microchip/xc32/v2.41/bin/bin/../../lib/gcc/pic32mx/4.8.3/../../../../pic32mx/lib\libpic32.a(vector7.o)
                              C:\Users\kamer\AppData\Local\Temp\ccmieHzo.o (__vector_dispatch_7)
c:/program files/microchip/xc32/v2.41/bin/bin/../../lib/gcc/pic32mx/4.8.3/../../../../pic32mx/lib\libpic32.a(vector8.o)
                              C:\Users\kamer\AppData\Local\Temp\ccmieHzo.o (__vector_dispatch_8)
c:/program files/microchip/xc32/v2.41/bin/bin/../../lib/gcc/pic32mx/4.8.3/../../../../pic32mx/lib\libpic32.a(vector9.o)
                              C:\Users\kamer\AppData\Local\Temp\ccmieHzo.o (__vector_dispatch_9)
c:/program files/microchip/xc32/v2.41/bin/bin/../../lib/gcc/pic32mx/4.8.3/../../../../pic32mx/lib\libpic32.a(vector10.o)
                              C:\Users\kamer\AppData\Local\Temp\ccmieHzo.o (__vector_dispatch_10)
c:/program files/microchip/xc32/v2.41/bin/bin/../../lib/gcc/pic32mx/4.8.3/../../../../pic32mx/lib\libpic32.a(vector11.o)
                              C:\Users\kamer\AppData\Local\Temp\ccmieHzo.o (__vector_dispatch_11)
c:/program files/microchip/xc32/v2.41/bin/bin/../../lib/gcc/pic32mx/4.8.3/../../../../pic32mx/lib\libpic32.a(vector12.o)
                              C:\Users\kamer\AppData\Local\Temp\ccmieHzo.o (__vector_dispatch_12)
c:/program files/microchip/xc32/v2.41/bin/bin/../../lib/gcc/pic32mx/4.8.3/../../../../pic32mx/lib\libpic32.a(vector13.o)
                              C:\Users\kamer\AppData\Local\Temp\ccmieHzo.o (__vector_dispatch_13)
c:/program files/microchip/xc32/v2.41/bin/bin/../../lib/gcc/pic32mx/4.8.3/../../../../pic32mx/lib\libpic32.a(vector14.o)
                              C:\Users\kamer\AppData\Local\Temp\ccmieHzo.o (__vector_dispatch_14)
c:/program files/microchip/xc32/v2.41/bin/bin/../../lib/gcc/pic32mx/4.8.3/../../../../pic32mx/lib\libpic32.a(vector15.o)
                              C:\Users\kamer\AppData\Local\Temp\ccmieHzo.o (__vector_dispatch_15)
c:/program files/microchip/xc32/v2.41/bin/bin/../../lib/gcc/pic32mx/4.8.3/../../../../pic32mx/lib\libpic32.a(vector16.o)
                              C:\Users\kamer\AppData\Local\Temp\ccmieHzo.o (__vector_dispatch_16)
c:/program files/microchip/xc32/v2.41/bin/bin/../../lib/gcc/pic32mx/4.8.3/../../../../pic32mx/lib\libpic32.a(vector17.o)
                              C:\Users\kamer\AppData\Local\Temp\ccmieHzo.o (__vector_dispatch_17)
c:/program files/microchip/xc32/v2.41/bin/bin/../../lib/gcc/pic32mx/4.8.3/../../../../pic32mx/lib\libpic32.a(vector18.o)
                              C:\Users\kamer\AppData\Local\Temp\ccmieHzo.o (__vector_dispatch_18)
c:/program files/microchip/xc32/v2.41/bin/bin/../../lib/gcc/pic32mx/4.8.3/../../../../pic32mx/lib\libpic32.a(vector19.o)
                              C:\Users\kamer\AppData\Local\Temp\ccmieHzo.o (__vector_dispatch_19)
c:/program files/microchip/xc32/v2.41/bin/bin/../../lib/gcc/pic32mx/4.8.3/../../../../pic32mx/lib\libpic32.a(vector20.o)
                              C:\Users\kamer\AppData\Local\Temp\ccmieHzo.o (__vector_dispatch_20)
c:/program files/microchip/xc32/v2.41/bin/bin/../../lib/gcc/pic32mx/4.8.3/../../../../pic32mx/lib\libpic32.a(vector21.o)
                              C:\Users\kamer\AppData\Local\Temp\ccmieHzo.o (__vector_dispatch_21)
c:/program files/microchip/xc32/v2.41/bin/bin/../../lib/gcc/pic32mx/4.8.3/../../../../pic32mx/lib\libpic32.a(vector22.o)
                              C:\Users\kamer\AppData\Local\Temp\ccmieHzo.o (__vector_dispatch_22)
c:/program files/microchip/xc32/v2.41/bin/bin/../../lib/gcc/pic32mx/4.8.3/../../../../pic32mx/lib\libpic32.a(vector23.o)
                              C:\Users\kamer\AppData\Local\Temp\ccmieHzo.o (__vector_dispatch_23)
c:/program files/microchip/xc32/v2.41/bin/bin/../../lib/gcc/pic32mx/4.8.3/../../../../pic32mx/lib\libpic32.a(vector24.o)
                              C:\Users\kamer\AppData\Local\Temp\ccmieHzo.o (__vector_dispatch_24)
c:/program files/microchip/xc32/v2.41/bin/bin/../../lib/gcc/pic32mx/4.8.3/../../../../pic32mx/lib\libpic32.a(vector25.o)
                              C:\Users\kamer\AppData\Local\Temp\ccmieHzo.o (__vector_dispatch_25)
c:/program files/microchip/xc32/v2.41/bin/bin/../../lib/gcc/pic32mx/4.8.3/../../../../pic32mx/lib\libpic32.a(vector26.o)
                              C:\Users\kamer\AppData\Local\Temp\ccmieHzo.o (__vector_dispatch_26)
c:/program files/microchip/xc32/v2.41/bin/bin/../../lib/gcc/pic32mx/4.8.3/../../../../pic32mx/lib\libpic32.a(vector27.o)
                              C:\Users\kamer\AppData\Local\Temp\ccmieHzo.o (__vector_dispatch_27)
c:/program files/microchip/xc32/v2.41/bin/bin/../../lib/gcc/pic32mx/4.8.3/../../../../pic32mx/lib\libpic32.a(vector28.o)
                              C:\Users\kamer\AppData\Local\Temp\ccmieHzo.o (__vector_dispatch_28)
c:/program files/microchip/xc32/v2.41/bin/bin/../../lib/gcc/pic32mx/4.8.3/../../../../pic32mx/lib\libpic32.a(vector29.o)
                              C:\Users\kamer\AppData\Local\Temp\ccmieHzo.o (__vector_dispatch_29)
c:/program files/microchip/xc32/v2.41/bin/bin/../../lib/gcc/pic32mx/4.8.3/../../../../pic32mx/lib\libpic32.a(vector30.o)
                              C:\Users\kamer\AppData\Local\Temp\ccmieHzo.o (__vector_dispatch_30)
c:/program files/microchip/xc32/v2.41/bin/bin/../../lib/gcc/pic32mx/4.8.3/../../../../pic32mx/lib\libpic32.a(vector31.o)
                              C:\Users\kamer\AppData\Local\Temp\ccmieHzo.o (__vector_dispatch_31)
c:/program files/microchip/xc32/v2.41/bin/bin/../../lib/gcc/pic32mx/4.8.3/../../../../pic32mx/lib\libpic32.a(vector32.o)
                              C:\Users\kamer\AppData\Local\Temp\ccmieHzo.o (__vector_dispatch_32)
c:/program files/microchip/xc32/v2.41/bin/bin/../../lib/gcc/pic32mx/4.8.3/../../../../pic32mx/lib\libpic32.a(vector33.o)
                              C:\Users\kamer\AppData\Local\Temp\ccmieHzo.o (__vector_dispatch_33)
c:/program files/microchip/xc32/v2.41/bin/bin/../../lib/gcc/pic32mx/4.8.3/../../../../pic32mx/lib\libpic32.a(vector34.o)
                              C:\Users\kamer\AppData\Local\Temp\ccmieHzo.o (__vector_dispatch_34)
c:/program files/microchip/xc32/v2.41/bin/bin/../../lib/gcc/pic32mx/4.8.3/../../../../pic32mx/lib\libpic32.a(vector35.o)
                              C:\Users\kamer\AppData\Local\Temp\ccmieHzo.o (__vector_dispatch_35)
c:/program files/microchip/xc32/v2.41/bin/bin/../../lib/gcc/pic32mx/4.8.3/../../../../pic32mx/lib\libpic32.a(vector36.o)
                              C:\Users\kamer\AppData\Local\Temp\ccmieHzo.o (__vector_dispatch_36)
c:/program files/microchip/xc32/v2.41/bin/bin/../../lib/gcc/pic32mx/4.8.3/../../../../pic32mx/lib\libpic32.a(vector37.o)
                              C:\Users\kamer\AppData\Local\Temp\ccmieHzo.o (__vector_dispatch_37)
c:/program files/microchip/xc32/v2.41/bin/bin/../../lib/gcc/pic32mx/4.8.3/../../../../pic32mx/lib\libpic32.a(vector38.o)
                              C:\Users\kamer\AppData\Local\Temp\ccmieHzo.o (__vector_dispatch_38)
c:/program files/microchip/xc32/v2.41/bin/bin/../../lib/gcc/pic32mx/4.8.3/../../../../pic32mx/lib\libpic32.a(vector39.o)
                              C:\Users\kamer\AppData\Local\Temp\ccmieHzo.o (__vector_dispatch_39)
c:/program files/microchip/xc32/v2.41/bin/bin/../../lib/gcc/pic32mx/4.8.3/../../../../pic32mx/lib\libpic32.a(vector40.o)
                              C:\Users\kamer\AppData\Local\Temp\ccmieHzo.o (__vector_dispatch_40)
c:/program files/microchip/xc32/v2.41/bin/bin/../../lib/gcc/pic32mx/4.8.3/../../../../pic32mx/lib\libpic32.a(vector41.o)
                              C:\Users\kamer\AppData\Local\Temp\ccmieHzo.o (__vector_dispatch_41)
c:/program files/microchip/xc32/v2.41/bin/bin/../../lib/gcc/pic32mx/4.8.3/../../../../pic32mx/lib\libpic32.a(vector42.o)
                              C:\Users\kamer\AppData\Local\Temp\ccmieHzo.o (__vector_dispatch_42)
c:/program files/microchip/xc32/v2.41/bin/bin/../../lib/gcc/pic32mx/4.8.3/../../../../pic32mx/lib\libpic32.a(vector43.o)
                              C:\Users\kamer\AppData\Local\Temp\ccmieHzo.o (__vector_dispatch_43)
c:/program files/microchip/xc32/v2.41/bin/bin/../../lib/gcc/pic32mx/4.8.3/../../../../pic32mx/lib\libpic32.a(vector44.o)
                              C:\Users\kamer\AppData\Local\Temp\ccmieHzo.o (__vector_dispatch_44)
c:/program files/microchip/xc32/v2.41/bin/bin/../../lib/gcc/pic32mx/4.8.3/../../../../pic32mx/lib\libpic32.a(vector45.o)
                              C:\Users\kamer\AppData\Local\Temp\ccmieHzo.o (__vector_dispatch_45)
c:/program files/microchip/xc32/v2.41/bin/bin/../../lib/gcc/pic32mx/4.8.3/../../../../pic32mx/lib\libpic32.a(vector46.o)
                              C:\Users\kamer\AppData\Local\Temp\ccmieHzo.o (__vector_dispatch_46)
c:/program files/microchip/xc32/v2.41/bin/bin/../../lib/gcc/pic32mx/4.8.3/../../../../pic32mx/lib\libpic32.a(vector47.o)
                              C:\Users\kamer\AppData\Local\Temp\ccmieHzo.o (__vector_dispatch_47)
c:/program files/microchip/xc32/v2.41/bin/bin/../../lib/gcc/pic32mx/4.8.3/../../../../pic32mx/lib\libpic32.a(vector48.o)
                              C:\Users\kamer\AppData\Local\Temp\ccmieHzo.o (__vector_dispatch_48)
c:/program files/microchip/xc32/v2.41/bin/bin/../../lib/gcc/pic32mx/4.8.3/../../../../pic32mx/lib\libpic32.a(vector49.o)
                              C:\Users\kamer\AppData\Local\Temp\ccmieHzo.o (__vector_dispatch_49)
c:/program files/microchip/xc32/v2.41/bin/bin/../../lib/gcc/pic32mx/4.8.3/../../../../pic32mx/lib\libpic32.a(vector50.o)
                              C:\Users\kamer\AppData\Local\Temp\ccmieHzo.o (__vector_dispatch_50)
c:/program files/microchip/xc32/v2.41/bin/bin/../../lib/gcc/pic32mx/4.8.3/../../../../pic32mx/lib\libpic32.a(vector51.o)
                              C:\Users\kamer\AppData\Local\Temp\ccmieHzo.o (__vector_dispatch_51)
c:/program files/microchip/xc32/v2.41/bin/bin/../../lib/gcc/pic32mx/4.8.3/../../../../pic32mx/lib\libpic32.a(defaultinterrupt.o)
                              c:/program files/microchip/xc32/v2.41/bin/bin/../../lib/gcc/pic32mx/4.8.3/../../../../pic32mx/lib\libpic32.a(vector0.o) (_DefaultInterrupt)
c:/program files/microchip/xc32/v2.41/bin/bin/../../lib/gcc/pic32mx/4.8.3/../../../../pic32mx/lib\libc.a(calloc.o)
                              build/default/production/_ext/536368125/ETHPIC32IntMac.o (calloc)
c:/program files/microchip/xc32/v2.41/bin/bin/../../lib/gcc/pic32mx/4.8.3/../../../../pic32mx/lib\libc.a(malloc.o)
                              c:/program files/microchip/xc32/v2.41/bin/bin/../../lib/gcc/pic32mx/4.8.3/../../../../pic32mx/lib\libc.a(calloc.o) (malloc)
c:/program files/microchip/xc32/v2.41/bin/bin/../../lib/gcc/pic32mx/4.8.3/../../../../pic32mx/lib\libc.a(strncpy.o)
                              build/default/production/_ext/536368125/Helpers.o (strncpy)
c:/program files/microchip/xc32/v2.41/bin/bin/../../lib/gcc/pic32mx/4.8.3/../../../../pic32mx/lib\libpic32.a(sbrk.o)
                              c:/program files/microchip/xc32/v2.41/bin/bin/../../lib/gcc/pic32mx/4.8.3/../../../../pic32mx/lib\libc.a(malloc.o) (sbrk)
c:/program files/microchip/xc32/v2.41/bin/bin/../../lib/gcc/pic32mx/4.8.3/../../../../pic32mx/lib\libpic32.a(errno.o)
                              c:/program files/microchip/xc32/v2.41/bin/bin/../../lib/gcc/pic32mx/4.8.3/../../../../pic32mx/lib\libpic32.a(sbrk.o) (errno)

Allocating common symbols
Common symbol       size              file

AN0String           0x8               build/default/production/_ext/1472/MainDemo.o
UDPRxCount          0x2               build/default/production/_ext/536368125/UDP.o
_PhyAdd             0x4               build/default/production/_ext/536368125/ETHPIC32ExtPhy.o
UDPTxCount          0x2               build/default/production/_ext/536368125/UDP.o
activeUDPSocket     0x1               build/default/production/_ext/536368125/UDP.o
UDPSocketInfo       0xe0              build/default/production/_ext/536368125/UDP.o
remoteNode          0xa               build/default/production/_ext/536368125/StackTsk.o
AppConfig           0x33              build/default/production/_ext/1472/MainDemo.o

Microchip PIC32 Memory-Usage Report

kseg0 Program-Memory Usage
section                    address  length [bytes]      (dec)  Description
-------                 ----------  -------------------------  -----------
.text                   0x9d000000         0x98a4       39076  App's exec code 
.text                   0x9d0098a4         0x22f8        8952  App's exec code 
.text                   0x9d00bb9c         0x1e3c        7740  App's exec code 
.text                   0x9d00d9d8         0x1650        5712  App's exec code 
.text                   0x9d00f028         0x1294        4756  App's exec code 
.rodata                 0x9d0102bc          0x7d4        2004  Read-only const 
.text                   0x9d010a90          0xaa8        2728  App's exec code 
.text                   0x9d011538          0x748        1864  App's exec code 
.text                   0x9d011c80          0x670        1648  App's exec code 
.text                   0x9d0122f0          0x2c8         712  App's exec code 
.text.malloc            0x9d0125b8          0x28c         652   
.text                   0x9d012844          0x254         596  App's exec code 
.text._EthAckPacket     0x9d012a98          0x250         592   
.text.EthRxBuffersAppen 0x9d012ce8          0x238         568   
.rodata                 0x9d012f20          0x1d8         472  Read-only const 
.dinit                  0x9d0130f8          0x1c0         448   
.rodata                 0x9d0132b8          0x1bc         444  Read-only const 
.text._sbrk_init        0x9d013474          0x194         404   
.text._EthRxAckBuffer   0x9d013608          0x174         372   
.text.EthDescriptorsPoo 0x9d01377c          0x170         368   
.text.EthRxGetPacket    0x9d0138ec          0x170         368   
.text                   0x9d013a5c          0x2d0         720  App's exec code 
.text                   0x9d013d2c          0x160         352  App's exec code 
.text.EthDescriptorsAdd 0x9d013e8c          0x160         352   
.text                   0x9d013fec          0x15c         348  App's exec code 
.text.EthTxSendPacket   0x9d014148          0x158         344   
.text._EthAppendBusyLis 0x9d0142a0          0x14c         332   
.text.realloc           0x9d0143ec          0x148         328   
.text.general_exception 0x9d014534           0xdc         220   
.text.EthTxSendBuffer   0x9d014610           0xd8         216   
.text                   0x9d0146e8           0xd4         212  App's exec code 
.text._sbrk             0x9d0147bc           0xc8         200   
.text.EthInit           0x9d014884           0xb4         180   
.text.EthMACOpen        0x9d014938           0xb4         180   
.text._EthTxSchedBuffer 0x9d0149ec           0xa8         168   
.text                   0x9d014a94          0x140         320  App's exec code 
.text._EthTxSchedList   0x9d014bd4           0x8c         140   
.text                   0x9d014c60           0x84         132  App's exec code 
.text.EthTxGetBufferSta 0x9d014ce4           0x78         120   
.text.EthMIIMConfig     0x9d014d5c           0x78         120   
.text.strncpy           0x9d014dd4           0x74         116   
.text.EthRxFiltersPMSet 0x9d014e48           0x6c         108   
.rodata                 0x9d014eb4           0x68         104  Read-only const 
.text.main_entry        0x9d014f1c           0x54          84   
.rodata                 0x9d014f70           0x54          84  Read-only const 
.text.sbrk              0x9d014fc4           0x50          80   
.text.calloc            0x9d015014           0x4c          76   
.text.EthMACSetAddress  0x9d015060           0x48          72   
.text._bootstrap_except 0x9d0150a8           0x48          72   
.vector_default         0x9d0150f0           0x48          72   
.text                   0x9d015138           0x44          68  App's exec code 
.text.EthMACGetAddress  0x9d01517c           0x44          68   
.text.EthMIIMReadStart  0x9d0151c0           0x40          64   
.text.INTSetVectorPrior 0x9d015200           0x40          64   
.text.INTSetVectorSubPr 0x9d015240           0x40          64   
.text.PORTSetPinsDigita 0x9d015280           0x40          64   
.text.PORTSetPinsDigita 0x9d0152c0           0x40          64   
.rodata                 0x9d015300           0x3c          60  Read-only const 
.text.EthRxGetBuffer    0x9d01533c           0x3c          60   
.text.INTEnable         0x9d015378           0x3c          60   
.text._EthFindPacket    0x9d0153b4           0x38          56   
.text.EthMIIMWriteStart 0x9d0153ec           0x38          56   
.text.EthRxSetBufferSiz 0x9d015424           0x34          52   
.text.EthMIIMScanStart  0x9d015458           0x34          52   
.text.INTEnableSystemMu 0x9d01548c           0x34          52   
.text.EthTxAcknowledgeB 0x9d0154c0           0x30          48   
.text.EthTxAckBuffer    0x9d0154f0           0x30          48   
.text.INTGetVectorPrior 0x9d015520           0x30          48   
.text.INTGetVectorSubPr 0x9d015550           0x30          48   
.text.free              0x9d015580           0x30          48   
.text.INTClearFlag      0x9d0155b0           0x2c          44   
.text.INTSetFlag        0x9d0155dc           0x2c          44   
.text.INTGetFlag        0x9d015608           0x2c          44   
.text.INTGetEnable      0x9d015634           0x2c          44   
.text._stub_sbd_memlayo 0x9d015660           0x2c          44   
.text.EthMIIMReadResult 0x9d01568c           0x28          40   
.text.PORTClearBits     0x9d0156b4           0x28          40   
.text.PORTSetBits       0x9d0156dc           0x28          40   
.text.EthMIIMScanResult 0x9d015704           0x20          32   
.rodata                 0x9d015724           0x1c          28  Read-only const 
.text.EthRxAcknowledgeB 0x9d015740           0x1c          28   
.text.EthRxAckBuffer    0x9d01575c           0x1c          28   
.text.INTRestoreInterru 0x9d015778           0x1c          28   
.text.EthRxFiltersHTSet 0x9d015794           0x18          24   
.text.CheKseg0CacheOff  0x9d0157ac           0x18          24   
.text.CheKseg0CacheOn   0x9d0157c4           0x18          24   
.text                   0x9d0157dc           0x18          24  App's exec code 
.text.EthMACSetMaxFrame 0x9d0157f4           0x14          20   
.text.EthRxFiltersPMClr 0x9d015808           0x14          20   
.rodata                 0x9d01581c           0x10          16  Read-only const 
.text.EthRxFiltersSet   0x9d01582c           0x10          16   
.text.EthRxFiltersClr   0x9d01583c           0x10          16   
.text.EthRxFiltersWrite 0x9d01584c           0x10          16   
.rodata                 0x9d01585c           0x18          24  Read-only const 
.text.ReadCoreTimer     0x9d015874            0x8           8   
.text.INTDisableInterru 0x9d01587c            0x8           8   
.text.INTEnableInterrup 0x9d015884            0x8           8   
.text._on_reset         0x9d01588c            0x8           8   
.text._on_bootstrap     0x9d015894            0x8           8   
.text.getpagesize       0x9d01589c            0x8           8   
      Total kseg0_program_mem used  :     0x158a4       88228  16.8% of 0x80000

kseg0 Boot-Memory Usage
section                    address  length [bytes]      (dec)  Description
-------                 ----------  -------------------------  -----------
         Total kseg0_boot_mem used  :           0           0  <1% of 0x970

Exception-Memory Usage 
section                    address  length [bytes]      (dec)  Description
-------                 ----------  -------------------------  -----------
.app_excpt              0x9fc01180           0x10          16  General-Exception 
.vector_0               0x9fc01200            0x8           8  Interrupt Vector 0 
.vector_1               0x9fc01220            0x8           8  Interrupt Vector 1 
.vector_2               0x9fc01240            0x8           8  Interrupt Vector 2 
.vector_3               0x9fc01260            0x8           8  Interrupt Vector 3 
.vector_4               0x9fc01280            0x8           8  Interrupt Vector 4 
.vector_5               0x9fc012a0            0x8           8  Interrupt Vector 5 
.vector_6               0x9fc012c0            0x8           8  Interrupt Vector 6 
.vector_7               0x9fc012e0            0x8           8  Interrupt Vector 7 
.vector_8               0x9fc01300            0x8           8  Interrupt Vector 8 
.vector_9               0x9fc01320            0x8           8  Interrupt Vector 9 
.vector_10              0x9fc01340            0x8           8  Interrupt Vector 10 
.vector_11              0x9fc01360            0x8           8  Interrupt Vector 11 
.vector_12              0x9fc01380            0x8           8  Interrupt Vector 12 
.vector_13              0x9fc013a0            0x8           8  Interrupt Vector 13 
.vector_14              0x9fc013c0            0x8           8  Interrupt Vector 14 
.vector_15              0x9fc013e0            0x8           8  Interrupt Vector 15 
.vector_16              0x9fc01400            0x8           8  Interrupt Vector 16 
.vector_17              0x9fc01420            0x8           8  Interrupt Vector 17 
.vector_18              0x9fc01440            0x8           8  Interrupt Vector 18 
.vector_19              0x9fc01460            0x8           8  Interrupt Vector 19 
.vector_20              0x9fc01480            0x8           8  Interrupt Vector 20 
.vector_21              0x9fc014a0            0x8           8  Interrupt Vector 21 
.vector_22              0x9fc014c0            0x8           8  Interrupt Vector 22 
.vector_23              0x9fc014e0            0x8           8  Interrupt Vector 23 
.vector_24              0x9fc01500            0x8           8  Interrupt Vector 24 
.vector_25              0x9fc01520            0x8           8  Interrupt Vector 25 
.vector_26              0x9fc01540            0x8           8  Interrupt Vector 26 
.vector_27              0x9fc01560            0x8           8  Interrupt Vector 27 
.vector_28              0x9fc01580            0x8           8  Interrupt Vector 28 
.vector_29              0x9fc015a0            0x8           8  Interrupt Vector 29 
.vector_30              0x9fc015c0            0x8           8  Interrupt Vector 30 
.vector_31              0x9fc015e0            0x8           8  Interrupt Vector 31 
.vector_32              0x9fc01600            0x8           8  Interrupt Vector 32 
.vector_33              0x9fc01620            0x8           8  Interrupt Vector 33 
.vector_34              0x9fc01640            0x8           8  Interrupt Vector 34 
.vector_35              0x9fc01660            0x8           8  Interrupt Vector 35 
.vector_36              0x9fc01680            0x8           8  Interrupt Vector 36 
.vector_37              0x9fc016a0            0x8           8  Interrupt Vector 37 
.vector_38              0x9fc016c0            0x8           8  Interrupt Vector 38 
.vector_39              0x9fc016e0            0x8           8  Interrupt Vector 39 
.vector_40              0x9fc01700            0x8           8  Interrupt Vector 40 
.vector_41              0x9fc01720            0x8           8  Interrupt Vector 41 
.vector_42              0x9fc01740            0x8           8  Interrupt Vector 42 
.vector_43              0x9fc01760            0x8           8  Interrupt Vector 43 
.vector_44              0x9fc01780            0x8           8  Interrupt Vector 44 
.vector_45              0x9fc017a0            0x8           8  Interrupt Vector 45 
.vector_46              0x9fc017c0            0x8           8  Interrupt Vector 46 
.vector_47              0x9fc017e0            0x8           8  Interrupt Vector 47 
.vector_48              0x9fc01800            0x8           8  Interrupt Vector 48 
.vector_49              0x9fc01820            0x8           8  Interrupt Vector 49 
.vector_50              0x9fc01840            0x8           8  Interrupt Vector 50 
.vector_51              0x9fc01860            0x8           8  Interrupt Vector 51 
          Total exception_mem used  :       0x1b0         432  10.5% of 0x1000

kseg1 Boot-Memory Usage
section                    address  length [bytes]      (dec)  Description
-------                 ----------  -------------------------  -----------
.reset                  0xbfc00000          0x19c         412  Reset handler 
.bev_excpt              0xbfc00380           0x10          16  BEV-Exception 
         Total kseg1_boot_mem used  :       0x1ac         428  36.6% of 0x490
        --------------------------------------------------------------------------
         Total Program Memory used  :     0x15c00       89088  16.7% of 0x81e00
        --------------------------------------------------------------------------


kseg1 Data-Memory Usage
section                    address  length [bytes]      (dec)  Description
-------                 ----------  -------------------------  -----------
.persist                0xa0000000            0x8           8   
.sdata                  0xa0000008           0x20          32  Small init data 
.sbss                   0xa0000028           0xcc         204  Small uninit data 
.bss                    0xa00000f4          0x120         288  Uninitialized data 
.bss                    0xa0000214         0x70d0       28880  Uninitialized data 
.bss                    0xa00072e4           0x44          68  Uninitialized data 
.bss                    0xa0007328           0x38          56  Uninitialized data 
.data                   0xa0007360           0x10          16  Initialized data 
.bss                    0xa0007370            0xc          12  Uninitialized data 
.bss.errno              0xa000737c            0x4           4   
         Total kseg1_data_mem used  :      0x7380       29568  22.6% of 0x20000
        --------------------------------------------------------------------------
            Total Data Memory used  :      0x7380       29568  22.6% of 0x20000
        --------------------------------------------------------------------------


Dynamic Data-Memory Reservation
section                    address  length [bytes]      (dec)  Description
-------                 ----------  -------------------------  -----------
heap                    0xa0007388         0x3e80       16000  Reserved for heap 
stack                   0xa000b220        0x14dd8       85464  Reserved for stack 

        --------------------------------------------------------------------------

Discarded input sections

 .reginfo       0x00000000       0x18 build/default/production/_ext/1472/BerkeleyTCPClientDemo.o
 .reginfo       0x00000000       0x18 build/default/production/_ext/1472/BerkeleyTCPServerDemo.o
 .reginfo       0x00000000       0x18 build/default/production/_ext/1472/BerkeleyUDPClientDemo.o
 .reginfo       0x00000000       0x18 build/default/production/_ext/1472/GenericTCPClient.o
 .reginfo       0x00000000       0x18 build/default/production/_ext/1472/GenericTCPServer.o
 .reginfo       0x00000000       0x18 build/default/production/_ext/1472/PingDemo.o
 .reginfo       0x00000000       0x18 build/default/production/_ext/1472/SMTPDemo.o
 .reginfo       0x00000000       0x18 build/default/production/_ext/1472/UARTConfig.o
 .reginfo       0x00000000       0x18 build/default/production/_ext/536368125/ARCFOUR.o
 .reginfo       0x00000000       0x18 build/default/production/_ext/536368125/ARP.o
 .reginfo       0x00000000       0x18 build/default/production/_ext/536368125/Announce.o
 .reginfo       0x00000000       0x18 build/default/production/_ext/536368125/AutoIP.o
 .reginfo       0x00000000       0x18 build/default/production/_ext/536368125/BerkeleyAPI.o
 .reginfo       0x00000000       0x18 build/default/production/_ext/536368125/BigInt.o
 .reginfo       0x00000000       0x18 build/default/production/_ext/536368125/BigInt_helper_PIC32.o
 .reginfo       0x00000000       0x18 build/default/production/_ext/536368125/DHCP.o
 .reginfo       0x00000000       0x18 build/default/production/_ext/536368125/DHCPs.o
 .reginfo       0x00000000       0x18 build/default/production/_ext/536368125/DNS.o
 .reginfo       0x00000000       0x18 build/default/production/_ext/536368125/DNSs.o
 .reginfo       0x00000000       0x18 build/default/production/_ext/536368125/Delay.o
 .reginfo       0x00000000       0x18 build/default/production/_ext/536368125/DynDNS.o
 .reginfo       0x00000000       0x18 build/default/production/_ext/536368125/ENC28J60.o
 .reginfo       0x00000000       0x18 build/default/production/_ext/536368125/ENCX24J600.o
 .reginfo       0x00000000       0x18 build/default/production/_ext/536368125/ETHPIC32ExtPhy.o
 .reginfo       0x00000000       0x18 build/default/production/_ext/536368125/ETHPIC32ExtPhySMSC8720.o
 .reginfo       0x00000000       0x18 build/default/production/_ext/536368125/ETHPIC32IntMac.o
 .reginfo       0x00000000       0x18 build/default/production/_ext/536368125/FTP.o
 .reginfo       0x00000000       0x18 build/default/production/_ext/536368125/FileSystem.o
 .reginfo       0x00000000       0x18 build/default/production/_ext/536368125/HTTP2.o
 .reginfo       0x00000000       0x18 build/default/production/_ext/536368125/Hashes.o
 .reginfo       0x00000000       0x18 build/default/production/_ext/536368125/Helpers.o
 .reginfo       0x00000000       0x18 build/default/production/_ext/536368125/ICMP.o
 .reginfo       0x00000000       0x18 build/default/production/_ext/536368125/IP.o
 .reginfo       0x00000000       0x18 build/default/production/_ext/536368125/LCDBlocking.o
 .reginfo       0x00000000       0x18 build/default/production/_ext/536368125/MPFS2.o
 .reginfo       0x00000000       0x18 build/default/production/_ext/536368125/NBNS.o
 .reginfo       0x00000000       0x18 build/default/production/_ext/536368125/RSA.o
 .reginfo       0x00000000       0x18 build/default/production/_ext/536368125/Random.o
 .reginfo       0x00000000       0x18 build/default/production/_ext/536368125/Reboot.o
 .reginfo       0x00000000       0x18 build/default/production/_ext/536368125/SMTP.o
 .reginfo       0x00000000       0x18 build/default/production/_ext/536368125/SNMP.o
 .reginfo       0x00000000       0x18 build/default/production/_ext/536368125/SNMPv3.o
 .reginfo       0x00000000       0x18 build/default/production/_ext/536368125/SNMPv3USM.o
 .reginfo       0x00000000       0x18 build/default/production/_ext/536368125/SNTP.o
 .reginfo       0x00000000       0x18 build/default/production/_ext/536368125/SPIEEPROM.o
 .reginfo       0x00000000       0x18 build/default/production/_ext/536368125/SPIFlash.o
 .reginfo       0x00000000       0x18 build/default/production/_ext/536368125/SPIRAM.o
 .reginfo       0x00000000       0x18 build/default/production/_ext/536368125/SSL.o
 .reginfo       0x00000000       0x18 build/default/production/_ext/536368125/StackTsk.o
 .reginfo       0x00000000       0x18 build/default/production/_ext/536368125/TCP.o
 .reginfo       0x00000000       0x18 build/default/production/_ext/536368125/TCPPerformanceTest.o
 .reginfo       0x00000000       0x18 build/default/production/_ext/536368125/TFTPc.o
 .reginfo       0x00000000       0x18 build/default/production/_ext/536368125/Telnet.o
 .reginfo       0x00000000       0x18 build/default/production/_ext/536368125/Tick.o
 .reginfo       0x00000000       0x18 build/default/production/_ext/536368125/UART.o
 .reginfo       0x00000000       0x18 build/default/production/_ext/536368125/UART2TCPBridge.o
 .reginfo       0x00000000       0x18 build/default/production/_ext/536368125/UDP.o
 .reginfo       0x00000000       0x18 build/default/production/_ext/536368125/UDPPerformanceTest.o
 .reginfo       0x00000000       0x18 build/default/production/_ext/536368125/ZeroconfHelper.o
 .reginfo       0x00000000       0x18 build/default/production/_ext/536368125/ZeroconfLinkLocal.o
 .reginfo       0x00000000       0x18 build/default/production/_ext/536368125/ZeroconfMulticastDNS.o
 .reginfo       0x00000000       0x18 build/default/production/_ext/1472/CustomHTTPApp.o
 .reginfo       0x00000000       0x18 build/default/production/_ext/1472/CustomSNMPApp.o
 .reginfo       0x00000000       0x18 build/default/production/_ext/1472/CustomSSLCert.o
 .reginfo       0x00000000       0x18 build/default/production/_ext/1472/MainDemo.o
 .reginfo       0x00000000       0x18 build/default/production/_ext/1472/LEDTCPServer.o
 .reginfo       0x00000000       0x18 C:\Users\kamer\AppData\Local\Temp\ccD0dtMf.o
 .reginfo       0x00000000       0x18 C:\Users\kamer\AppData\Local\Temp\ccWP2f57.o
 .reginfo       0x00000000       0x18 C:\Users\kamer\AppData\Local\Temp\ccmieHzo.o
 .discard       0x00000000       0xd0 C:\Users\kamer\AppData\Local\Temp\ccmieHzo.o
 .reginfo       0x00000000       0x18 c:/program files/microchip/xc32/v2.41/bin/bin/../../lib/gcc/pic32mx/4.8.3/../../../../pic32mx/lib\pic32_software_reset.o
 .reginfo       0x00000000       0x18 c:/program files/microchip/xc32/v2.41/bin/bin/../../lib/gcc/pic32mx/4.8.3/../../../../pic32mx/lib/./proc/32MX795F512L\processor.o
 .reginfo       0x00000000       0x18 c:/program files/microchip/xc32/v2.41/bin/bin/../../lib/gcc/pic32mx/4.8.3/../../../../pic32mx/lib\libmchp_peripheral.a(read_core_timer_lib.o)
 .reginfo       0x00000000       0x18 c:/program files/microchip/xc32/v2.41/bin/bin/../../lib/gcc/pic32mx/4.8.3/../../../../pic32mx/lib\libmchp_peripheral_32MX795F512L.a(eth_ack_packet_lib.o)
 .reginfo       0x00000000       0x18 c:/program files/microchip/xc32/v2.41/bin/bin/../../lib/gcc/pic32mx/4.8.3/../../../../pic32mx/lib\libmchp_peripheral_32MX795F512L.a(eth_descriptors_add_lib.o)
 .reginfo       0x00000000       0x18 c:/program files/microchip/xc32/v2.41/bin/bin/../../lib/gcc/pic32mx/4.8.3/../../../../pic32mx/lib\libmchp_peripheral_32MX795F512L.a(eth_init_lib.o)
 .reginfo       0x00000000       0x18 c:/program files/microchip/xc32/v2.41/bin/bin/../../lib/gcc/pic32mx/4.8.3/../../../../pic32mx/lib\libmchp_peripheral_32MX795F512L.a(eth_mac_open_lib.o)
 .reginfo       0x00000000       0x18 c:/program files/microchip/xc32/v2.41/bin/bin/../../lib/gcc/pic32mx/4.8.3/../../../../pic32mx/lib\libmchp_peripheral_32MX795F512L.a(eth_mac_set_address_max_lib.o)
 .reginfo       0x00000000       0x18 c:/program files/microchip/xc32/v2.41/bin/bin/../../lib/gcc/pic32mx/4.8.3/../../../../pic32mx/lib\libmchp_peripheral_32MX795F512L.a(eth_rx_buffers_append_lib.o)
 .reginfo       0x00000000       0x18 c:/program files/microchip/xc32/v2.41/bin/bin/../../lib/gcc/pic32mx/4.8.3/../../../../pic32mx/lib\libmchp_peripheral_32MX795F512L.a(eth_rx_filters_lib.o)
 .reginfo       0x00000000       0x18 c:/program files/microchip/xc32/v2.41/bin/bin/../../lib/gcc/pic32mx/4.8.3/../../../../pic32mx/lib\libmchp_peripheral_32MX795F512L.a(eth_rx_get_packet_lib.o)
 .reginfo       0x00000000       0x18 c:/program files/microchip/xc32/v2.41/bin/bin/../../lib/gcc/pic32mx/4.8.3/../../../../pic32mx/lib\libmchp_peripheral_32MX795F512L.a(eth_rx_set_buffer_size_lib.o)
 .reginfo       0x00000000       0x18 c:/program files/microchip/xc32/v2.41/bin/bin/../../lib/gcc/pic32mx/4.8.3/../../../../pic32mx/lib\libmchp_peripheral_32MX795F512L.a(eth_tx_packet_lib.o)
 .reginfo       0x00000000       0x18 c:/program files/microchip/xc32/v2.41/bin/bin/../../lib/gcc/pic32mx/4.8.3/../../../../pic32mx/lib\libmchp_peripheral_32MX795F512L.a(_eth_append_busy_list_lib.o)
 .reginfo       0x00000000       0x18 c:/program files/microchip/xc32/v2.41/bin/bin/../../lib/gcc/pic32mx/4.8.3/../../../../pic32mx/lib\libmchp_peripheral_32MX795F512L.a(eth_miim_access.o)
 .reginfo       0x00000000       0x18 c:/program files/microchip/xc32/v2.41/bin/bin/../../lib/gcc/pic32mx/4.8.3/../../../../pic32mx/lib\libmchp_peripheral_32MX795F512L.a(pcache.o)
 .reginfo       0x00000000       0x18 c:/program files/microchip/xc32/v2.41/bin/bin/../../lib/gcc/pic32mx/4.8.3/../../../../pic32mx/lib\libmchp_peripheral_32MX795F512L.a(int_disable_interrupts_lib.o)
 .reginfo       0x00000000       0x18 c:/program files/microchip/xc32/v2.41/bin/bin/../../lib/gcc/pic32mx/4.8.3/../../../../pic32mx/lib\libmchp_peripheral_32MX795F512L.a(int_restore_interrupts_lib.o)
 .reginfo       0x00000000       0x18 c:/program files/microchip/xc32/v2.41/bin/bin/../../lib/gcc/pic32mx/4.8.3/../../../../pic32mx/lib\libmchp_peripheral_32MX795F512L.a(int_enable_mv_int_lib.o)
 .reginfo       0x00000000       0x18 c:/program files/microchip/xc32/v2.41/bin/bin/../../lib/gcc/pic32mx/4.8.3/../../../../pic32mx/lib\libmchp_peripheral_32MX795F512L.a(int_tbl_lib.o)
 .reginfo       0x00000000       0x18 c:/program files/microchip/xc32/v2.41/bin/bin/../../lib/gcc/pic32mx/4.8.3/../../../../pic32mx/lib\libmchp_peripheral_32MX795F512L.a(port_set_pins_digital_in_lib.o)
 .reginfo       0x00000000       0x18 c:/program files/microchip/xc32/v2.41/bin/bin/../../lib/gcc/pic32mx/4.8.3/../../../../pic32mx/lib\libmchp_peripheral_32MX795F512L.a(port_set_pins_digital_out_lib.o)
 .reginfo       0x00000000       0x18 c:/program files/microchip/xc32/v2.41/bin/bin/../../lib/gcc/pic32mx/4.8.3/../../../../pic32mx/lib\libmchp_peripheral_32MX795F512L.a(port_clear_bits_lib.o)
 .reginfo       0x00000000       0x18 c:/program files/microchip/xc32/v2.41/bin/bin/../../lib/gcc/pic32mx/4.8.3/../../../../pic32mx/lib\libmchp_peripheral_32MX795F512L.a(port_set_bits_lib.o)
 .reginfo       0x00000000       0x18 c:/program files/microchip/xc32/v2.41/bin/bin/../../lib/gcc/pic32mx/4.8.3/../../../../pic32mx/lib\libmchp_peripheral_32MX795F512L.a(_ports_tbl_libp.o)
 .reginfo       0x00000000       0x18 c:/program files/microchip/xc32/v2.41/bin/bin/../../lib/gcc/pic32mx/4.8.3/../../../../pic32mx/lib\libmchp_peripheral_32MX795F512L.a(int_enable_interrupts_lib.o)
 .reginfo       0x00000000       0x18 c:/program files/microchip/xc32/v2.41/bin/bin/../../lib/gcc/pic32mx/4.8.3\libgcc.a(_udivdi3.o)
 .reginfo       0x00000000       0x18 c:/program files/microchip/xc32/v2.41/bin/bin/../../lib/gcc/pic32mx/4.8.3/../../../../pic32mx/lib\libpic32.a(memcmp.o)
 .reginfo       0x00000000       0x18 c:/program files/microchip/xc32/v2.41/bin/bin/../../lib/gcc/pic32mx/4.8.3/../../../../pic32mx/lib\libpic32.a(memcpy.o)
 .reginfo       0x00000000       0x18 c:/program files/microchip/xc32/v2.41/bin/bin/../../lib/gcc/pic32mx/4.8.3/../../../../pic32mx/lib\libpic32.a(memset.o)
 .reginfo       0x00000000       0x18 c:/program files/microchip/xc32/v2.41/bin/bin/../../lib/gcc/pic32mx/4.8.3/../../../../pic32mx/lib\libpic32.a(strlen.o)
 .reginfo       0x00000000       0x18 c:/program files/microchip/xc32/v2.41/bin/bin/../../lib/gcc/pic32mx/4.8.3/../../../../pic32mx/lib\libpic32.a(default-bootstrap-exception-handler.o)
 .reginfo       0x00000000       0x18 c:/program files/microchip/xc32/v2.41/bin/bin/../../lib/gcc/pic32mx/4.8.3/../../../../pic32mx/lib\libpic32.a(default-on-reset.o)
 .reginfo       0x00000000       0x18 c:/program files/microchip/xc32/v2.41/bin/bin/../../lib/gcc/pic32mx/4.8.3/../../../../pic32mx/lib\libpic32.a(default-on-bootstrap.o)
 .reginfo       0x00000000       0x18 c:/program files/microchip/xc32/v2.41/bin/bin/../../lib/gcc/pic32mx/4.8.3/../../../../pic32mx/lib\libpic32.a(default-nmi-handler.o)
 .reginfo       0x00000000       0x18 c:/program files/microchip/xc32/v2.41/bin/bin/../../lib/gcc/pic32mx/4.8.3/../../../../pic32mx/lib\libpic32.a(pic32_data_init.o)
 .reginfo       0x00000000       0x18 c:/program files/microchip/xc32/v2.41/bin/bin/../../lib/gcc/pic32mx/4.8.3/../../../../pic32mx/lib\libpic32.a(general-exception.o)
 .reginfo       0x00000000       0x18 c:/program files/microchip/xc32/v2.41/bin/bin/../../lib/gcc/pic32mx/4.8.3/../../../../pic32mx/lib\libpic32.a(vector0.o)
 .reginfo       0x00000000       0x18 c:/program files/microchip/xc32/v2.41/bin/bin/../../lib/gcc/pic32mx/4.8.3/../../../../pic32mx/lib\libpic32.a(vector1.o)
 .reginfo       0x00000000       0x18 c:/program files/microchip/xc32/v2.41/bin/bin/../../lib/gcc/pic32mx/4.8.3/../../../../pic32mx/lib\libpic32.a(vector2.o)
 .reginfo       0x00000000       0x18 c:/program files/microchip/xc32/v2.41/bin/bin/../../lib/gcc/pic32mx/4.8.3/../../../../pic32mx/lib\libpic32.a(vector3.o)
 .reginfo       0x00000000       0x18 c:/program files/microchip/xc32/v2.41/bin/bin/../../lib/gcc/pic32mx/4.8.3/../../../../pic32mx/lib\libpic32.a(vector5.o)
 .reginfo       0x00000000       0x18 c:/program files/microchip/xc32/v2.41/bin/bin/../../lib/gcc/pic32mx/4.8.3/../../../../pic32mx/lib\libpic32.a(vector6.o)
 .reginfo       0x00000000       0x18 c:/program files/microchip/xc32/v2.41/bin/bin/../../lib/gcc/pic32mx/4.8.3/../../../../pic32mx/lib\libpic32.a(vector7.o)
 .reginfo       0x00000000       0x18 c:/program files/microchip/xc32/v2.41/bin/bin/../../lib/gcc/pic32mx/4.8.3/../../../../pic32mx/lib\libpic32.a(vector8.o)
 .reginfo       0x00000000       0x18 c:/program files/microchip/xc32/v2.41/bin/bin/../../lib/gcc/pic32mx/4.8.3/../../../../pic32mx/lib\libpic32.a(vector9.o)
 .reginfo       0x00000000       0x18 c:/program files/microchip/xc32/v2.41/bin/bin/../../lib/gcc/pic32mx/4.8.3/../../../../pic32mx/lib\libpic32.a(vector10.o)
 .reginfo       0x00000000       0x18 c:/program files/microchip/xc32/v2.41/bin/bin/../../lib/gcc/pic32mx/4.8.3/../../../../pic32mx/lib\libpic32.a(vector11.o)
 .reginfo       0x00000000       0x18 c:/program files/microchip/xc32/v2.41/bin/bin/../../lib/gcc/pic32mx/4.8.3/../../../../pic32mx/lib\libpic32.a(vector12.o)
 .reginfo       0x00000000       0x18 c:/program files/microchip/xc32/v2.41/bin/bin/../../lib/gcc/pic32mx/4.8.3/../../../../pic32mx/lib\libpic32.a(vector13.o)
 .reginfo       0x00000000       0x18 c:/program files/microchip/xc32/v2.41/bin/bin/../../lib/gcc/pic32mx/4.8.3/../../../../pic32mx/lib\libpic32.a(vector14.o)
 .reginfo       0x00000000       0x18 c:/program files/microchip/xc32/v2.41/bin/bin/../../lib/gcc/pic32mx/4.8.3/../../../../pic32mx/lib\libpic32.a(vector15.o)
 .reginfo       0x00000000       0x18 c:/program files/microchip/xc32/v2.41/bin/bin/../../lib/gcc/pic32mx/4.8.3/../../../../pic32mx/lib\libpic32.a(vector16.o)
 .reginfo       0x00000000       0x18 c:/program files/microchip/xc32/v2.41/bin/bin/../../lib/gcc/pic32mx/4.8.3/../../../../pic32mx/lib\libpic32.a(vector17.o)
 .reginfo       0x00000000       0x18 c:/program files/microchip/xc32/v2.41/bin/bin/../../lib/gcc/pic32mx/4.8.3/../../../../pic32mx/lib\libpic32.a(vector18.o)
 .reginfo       0x00000000       0x18 c:/program files/microchip/xc32/v2.41/bin/bin/../../lib/gcc/pic32mx/4.8.3/../../../../pic32mx/lib\libpic32.a(vector19.o)
 .reginfo       0x00000000       0x18 c:/program files/microchip/xc32/v2.41/bin/bin/../../lib/gcc/pic32mx/4.8.3/../../../../pic32mx/lib\libpic32.a(vector20.o)
 .reginfo       0x00000000       0x18 c:/program files/microchip/xc32/v2.41/bin/bin/../../lib/gcc/pic32mx/4.8.3/../../../../pic32mx/lib\libpic32.a(vector21.o)
 .reginfo       0x00000000       0x18 c:/program files/microchip/xc32/v2.41/bin/bin/../../lib/gcc/pic32mx/4.8.3/../../../../pic32mx/lib\libpic32.a(vector22.o)
 .reginfo       0x00000000       0x18 c:/program files/microchip/xc32/v2.41/bin/bin/../../lib/gcc/pic32mx/4.8.3/../../../../pic32mx/lib\libpic32.a(vector23.o)
 .reginfo       0x00000000       0x18 c:/program files/microchip/xc32/v2.41/bin/bin/../../lib/gcc/pic32mx/4.8.3/../../../../pic32mx/lib\libpic32.a(vector24.o)
 .reginfo       0x00000000       0x18 c:/program files/microchip/xc32/v2.41/bin/bin/../../lib/gcc/pic32mx/4.8.3/../../../../pic32mx/lib\libpic32.a(vector25.o)
 .reginfo       0x00000000       0x18 c:/program files/microchip/xc32/v2.41/bin/bin/../../lib/gcc/pic32mx/4.8.3/../../../../pic32mx/lib\libpic32.a(vector26.o)
 .reginfo       0x00000000       0x18 c:/program files/microchip/xc32/v2.41/bin/bin/../../lib/gcc/pic32mx/4.8.3/../../../../pic32mx/lib\libpic32.a(vector27.o)
 .reginfo       0x00000000       0x18 c:/program files/microchip/xc32/v2.41/bin/bin/../../lib/gcc/pic32mx/4.8.3/../../../../pic32mx/lib\libpic32.a(vector28.o)
 .reginfo       0x00000000       0x18 c:/program files/microchip/xc32/v2.41/bin/bin/../../lib/gcc/pic32mx/4.8.3/../../../../pic32mx/lib\libpic32.a(vector29.o)
 .reginfo       0x00000000       0x18 c:/program files/microchip/xc32/v2.41/bin/bin/../../lib/gcc/pic32mx/4.8.3/../../../../pic32mx/lib\libpic32.a(vector30.o)
 .reginfo       0x00000000       0x18 c:/program files/microchip/xc32/v2.41/bin/bin/../../lib/gcc/pic32mx/4.8.3/../../../../pic32mx/lib\libpic32.a(vector31.o)
 .reginfo       0x00000000       0x18 c:/program files/microchip/xc32/v2.41/bin/bin/../../lib/gcc/pic32mx/4.8.3/../../../../pic32mx/lib\libpic32.a(vector32.o)
 .reginfo       0x00000000       0x18 c:/program files/microchip/xc32/v2.41/bin/bin/../../lib/gcc/pic32mx/4.8.3/../../../../pic32mx/lib\libpic32.a(vector33.o)
 .reginfo       0x00000000       0x18 c:/program files/microchip/xc32/v2.41/bin/bin/../../lib/gcc/pic32mx/4.8.3/../../../../pic32mx/lib\libpic32.a(vector34.o)
 .reginfo       0x00000000       0x18 c:/program files/microchip/xc32/v2.41/bin/bin/../../lib/gcc/pic32mx/4.8.3/../../../../pic32mx/lib\libpic32.a(vector35.o)
 .reginfo       0x00000000       0x18 c:/program files/microchip/xc32/v2.41/bin/bin/../../lib/gcc/pic32mx/4.8.3/../../../../pic32mx/lib\libpic32.a(vector36.o)
 .reginfo       0x00000000       0x18 c:/program files/microchip/xc32/v2.41/bin/bin/../../lib/gcc/pic32mx/4.8.3/../../../../pic32mx/lib\libpic32.a(vector37.o)
 .reginfo       0x00000000       0x18 c:/program files/microchip/xc32/v2.41/bin/bin/../../lib/gcc/pic32mx/4.8.3/../../../../pic32mx/lib\libpic32.a(vector38.o)
 .reginfo       0x00000000       0x18 c:/program files/microchip/xc32/v2.41/bin/bin/../../lib/gcc/pic32mx/4.8.3/../../../../pic32mx/lib\libpic32.a(vector39.o)
 .reginfo       0x00000000       0x18 c:/program files/microchip/xc32/v2.41/bin/bin/../../lib/gcc/pic32mx/4.8.3/../../../../pic32mx/lib\libpic32.a(vector40.o)
 .reginfo       0x00000000       0x18 c:/program files/microchip/xc32/v2.41/bin/bin/../../lib/gcc/pic32mx/4.8.3/../../../../pic32mx/lib\libpic32.a(vector41.o)
 .reginfo       0x00000000       0x18 c:/program files/microchip/xc32/v2.41/bin/bin/../../lib/gcc/pic32mx/4.8.3/../../../../pic32mx/lib\libpic32.a(vector42.o)
 .reginfo       0x00000000       0x18 c:/program files/microchip/xc32/v2.41/bin/bin/../../lib/gcc/pic32mx/4.8.3/../../../../pic32mx/lib\libpic32.a(vector43.o)
 .reginfo       0x00000000       0x18 c:/program files/microchip/xc32/v2.41/bin/bin/../../lib/gcc/pic32mx/4.8.3/../../../../pic32mx/lib\libpic32.a(vector44.o)
 .reginfo       0x00000000       0x18 c:/program files/microchip/xc32/v2.41/bin/bin/../../lib/gcc/pic32mx/4.8.3/../../../../pic32mx/lib\libpic32.a(vector45.o)
 .reginfo       0x00000000       0x18 c:/program files/microchip/xc32/v2.41/bin/bin/../../lib/gcc/pic32mx/4.8.3/../../../../pic32mx/lib\libpic32.a(vector46.o)
 .reginfo       0x00000000       0x18 c:/program files/microchip/xc32/v2.41/bin/bin/../../lib/gcc/pic32mx/4.8.3/../../../../pic32mx/lib\libpic32.a(vector47.o)
 .reginfo       0x00000000       0x18 c:/program files/microchip/xc32/v2.41/bin/bin/../../lib/gcc/pic32mx/4.8.3/../../../../pic32mx/lib\libpic32.a(vector48.o)
 .reginfo       0x00000000       0x18 c:/program files/microchip/xc32/v2.41/bin/bin/../../lib/gcc/pic32mx/4.8.3/../../../../pic32mx/lib\libpic32.a(vector49.o)
 .reginfo       0x00000000       0x18 c:/program files/microchip/xc32/v2.41/bin/bin/../../lib/gcc/pic32mx/4.8.3/../../../../pic32mx/lib\libpic32.a(vector50.o)
 .reginfo       0x00000000       0x18 c:/program files/microchip/xc32/v2.41/bin/bin/../../lib/gcc/pic32mx/4.8.3/../../../../pic32mx/lib\libpic32.a(vector51.o)
 .reginfo       0x00000000       0x18 c:/program files/microchip/xc32/v2.41/bin/bin/../../lib/gcc/pic32mx/4.8.3/../../../../pic32mx/lib\libpic32.a(defaultinterrupt.o)
 .reginfo       0x00000000       0x18 c:/program files/microchip/xc32/v2.41/bin/bin/../../lib/gcc/pic32mx/4.8.3/../../../../pic32mx/lib\libc.a(calloc.o)
 .reginfo       0x00000000       0x18 c:/program files/microchip/xc32/v2.41/bin/bin/../../lib/gcc/pic32mx/4.8.3/../../../../pic32mx/lib\libc.a(malloc.o)
 .reginfo       0x00000000       0x18 c:/program files/microchip/xc32/v2.41/bin/bin/../../lib/gcc/pic32mx/4.8.3/../../../../pic32mx/lib\libc.a(strncpy.o)
 .reginfo       0x00000000       0x18 c:/program files/microchip/xc32/v2.41/bin/bin/../../lib/gcc/pic32mx/4.8.3/../../../../pic32mx/lib\libpic32.a(sbrk.o)
 .reginfo       0x00000000       0x18 c:/program files/microchip/xc32/v2.41/bin/bin/../../lib/gcc/pic32mx/4.8.3/../../../../pic32mx/lib\libpic32.a(errno.o)

Memory Configuration

Name             Origin             Length             Attributes
kseg0_program_mem 0x9d000000         0x00080000         xr
kseg0_boot_mem   0x9fc00490         0x00000970
exception_mem    0x9fc01000         0x00001000
kseg1_boot_mem   0xbfc00000         0x00000490
debug_exec_mem   0xbfc02000         0x00000ff0
config3          0xbfc02ff0         0x00000004
config2          0xbfc02ff4         0x00000004
config1          0xbfc02ff8         0x00000004
config0          0xbfc02ffc         0x00000004
kseg1_data_mem   0xa0000000         0x00020000         w !x
sfrs             0xbf800000         0x00100000
configsfrs       0xbfc02ff0         0x00000010
*default*        0x00000000         0xffffffff

Linker script and memory map

LOAD c:/program files/microchip/xc32/v2.41/bin/bin/../../lib/gcc/pic32mx/4.8.3/../../../../pic32mx/lib\debug-exception-return.o
LOAD build/default/production/_ext/1472/BerkeleyTCPClientDemo.o
LOAD build/default/production/_ext/1472/BerkeleyTCPServerDemo.o
LOAD build/default/production/_ext/1472/BerkeleyUDPClientDemo.o
LOAD build/default/production/_ext/1472/GenericTCPClient.o
LOAD build/default/production/_ext/1472/GenericTCPServer.o
LOAD build/default/production/_ext/1472/PingDemo.o
LOAD build/default/production/_ext/1472/SMTPDemo.o
LOAD build/default/production/_ext/1472/UARTConfig.o
LOAD build/default/production/_ext/536368125/ARCFOUR.o
LOAD build/default/production/_ext/536368125/ARP.o
LOAD build/default/production/_ext/536368125/Announce.o
LOAD build/default/production/_ext/536368125/AutoIP.o
LOAD build/default/production/_ext/536368125/BerkeleyAPI.o
LOAD build/default/production/_ext/536368125/BigInt.o
LOAD build/default/production/_ext/536368125/BigInt_helper_PIC32.o
LOAD build/default/production/_ext/536368125/DHCP.o
LOAD build/default/production/_ext/536368125/DHCPs.o
LOAD build/default/production/_ext/536368125/DNS.o
LOAD build/default/production/_ext/536368125/DNSs.o
LOAD build/default/production/_ext/536368125/Delay.o
LOAD build/default/production/_ext/536368125/DynDNS.o
LOAD build/default/production/_ext/536368125/ENC28J60.o
LOAD build/default/production/_ext/536368125/ENCX24J600.o
LOAD build/default/production/_ext/536368125/ETHPIC32ExtPhy.o
LOAD build/default/production/_ext/536368125/ETHPIC32ExtPhySMSC8720.o
LOAD build/default/production/_ext/536368125/ETHPIC32IntMac.o
LOAD build/default/production/_ext/536368125/FTP.o
LOAD build/default/production/_ext/536368125/FileSystem.o
LOAD build/default/production/_ext/536368125/HTTP2.o
LOAD build/default/production/_ext/536368125/Hashes.o
LOAD build/default/production/_ext/536368125/Helpers.o
LOAD build/default/production/_ext/536368125/ICMP.o
LOAD build/default/production/_ext/536368125/IP.o
LOAD build/default/production/_ext/536368125/LCDBlocking.o
LOAD build/default/production/_ext/536368125/MPFS2.o
LOAD build/default/production/_ext/536368125/NBNS.o
LOAD build/default/production/_ext/536368125/RSA.o
LOAD build/default/production/_ext/536368125/Random.o
LOAD build/default/production/_ext/536368125/Reboot.o
LOAD build/default/production/_ext/536368125/SMTP.o
LOAD build/default/production/_ext/536368125/SNMP.o
LOAD build/default/production/_ext/536368125/SNMPv3.o
LOAD build/default/production/_ext/536368125/SNMPv3USM.o
LOAD build/default/production/_ext/536368125/SNTP.o
LOAD build/default/production/_ext/536368125/SPIEEPROM.o
LOAD build/default/production/_ext/536368125/SPIFlash.o
LOAD build/default/production/_ext/536368125/SPIRAM.o
LOAD build/default/production/_ext/536368125/SSL.o
LOAD build/default/production/_ext/536368125/StackTsk.o
LOAD build/default/production/_ext/536368125/TCP.o
LOAD build/default/production/_ext/536368125/TCPPerformanceTest.o
LOAD build/default/production/_ext/536368125/TFTPc.o
LOAD build/default/production/_ext/536368125/Telnet.o
LOAD build/default/production/_ext/536368125/Tick.o
LOAD build/default/production/_ext/536368125/UART.o
LOAD build/default/production/_ext/536368125/UART2TCPBridge.o
LOAD build/default/production/_ext/536368125/UDP.o
LOAD build/default/production/_ext/536368125/UDPPerformanceTest.o
LOAD build/default/production/_ext/536368125/ZeroconfHelper.o
LOAD build/default/production/_ext/536368125/ZeroconfLinkLocal.o
LOAD build/default/production/_ext/536368125/ZeroconfMulticastDNS.o
LOAD build/default/production/_ext/1472/CustomHTTPApp.o
LOAD build/default/production/_ext/1472/CustomSNMPApp.o
LOAD build/default/production/_ext/1472/CustomSSLCert.o
LOAD build/default/production/_ext/1472/MainDemo.o
LOAD build/default/production/_ext/1472/LEDTCPServer.o
                0x00000001                __MPLAB_BUILD = 0x1
                0x00003e80                _min_heap_size = 0x3e80
                0x00000800                _min_stack_size = 0x800
LOAD C:\Users\kamer\AppData\Local\Temp\ccD0dtMf.o
LOAD C:\Users\kamer\AppData\Local\Temp\ccWP2f57.o
LOAD C:\Users\kamer\AppData\Local\Temp\ccmieHzo.o
LOAD c:/program files/microchip/xc32/v2.41/bin/bin/../../lib/gcc/pic32mx/4.8.3/../../../../pic32mx/lib\pic32_software_reset.o
                0x00000400                PROVIDE (_min_stack_size, 0x400)
START GROUP
LOAD c:/program files/microchip/xc32/v2.41/bin/bin/../../lib/gcc/pic32mx/4.8.3/../../../../pic32mx/lib/./proc/32MX795F512L\processor.o
END GROUP
START GROUP
LOAD c:/program files/microchip/xc32/v2.41/bin/bin/../../lib/gcc/pic32mx/4.8.3/../../../../pic32mx/lib\libmchp_peripheral.a
END GROUP
START GROUP
LOAD c:/program files/microchip/xc32/v2.41/bin/bin/../../lib/gcc/pic32mx/4.8.3/../../../../pic32mx/lib\libmchp_peripheral_32MX795F512L.a
END GROUP
                0x00000001                PROVIDE (_vector_spacing, 0x1)
                0x9fc01000                PROVIDE (_ebase_address, 0x9fc01000)
                0xbfc00000                _RESET_ADDR = 0xbfc00000
                0xbfc00380                _BEV_EXCPT_ADDR = 0xbfc00380
                0xbfc00480                _DBG_EXCPT_ADDR = 0xbfc00480
                0xbfc02000                _DBG_CODE_ADDR = 0xbfc02000
                0x00000ff0                _DBG_CODE_SIZE = 0xff0
                0x9fc01180                _GEN_EXCPT_ADDR = (_ebase_address + 0x180)

.config_BFC02FF0
                0xbfc02ff0        0x4
 *(.config_BFC02FF0)
 .config_BFC02FF0
                0xbfc02ff0        0x4 build/default/production/_ext/1472/MainDemo.o

.config_BFC02FF4
                0xbfc02ff4        0x4
 *(.config_BFC02FF4)
 .config_BFC02FF4
                0xbfc02ff4        0x4 build/default/production/_ext/1472/MainDemo.o

.config_BFC02FF8
                0xbfc02ff8        0x4
 *(.config_BFC02FF8)
 .config_BFC02FF8
                0xbfc02ff8        0x4 build/default/production/_ext/1472/MainDemo.o

.config_BFC02FFC
                0xbfc02ffc        0x4
 *(.config_BFC02FFC)
 .config_BFC02FFC
                0xbfc02ffc        0x4 build/default/production/_ext/1472/MainDemo.o
                0xbfc02000                PROVIDE (_DBG_CODE_ADDR, 0xbfc02000)
                0x00000ff0                PROVIDE (_DBG_CODE_SIZE, 0xff0)

.reset          0xbfc00000      0x19c
 *(.reset)
 .reset         0xbfc00000        0x8 C:\Users\kamer\AppData\Local\Temp\ccD0dtMf.o
                0xbfc00000                _reset
 *(.reset.startup)
 .reset.startup
                0xbfc00008      0x194 C:\Users\kamer\AppData\Local\Temp\ccD0dtMf.o
                0xbfc00008                _startup

.bev_excpt      0xbfc00380       0x10
 *(.bev_handler)
 .bev_handler   0xbfc00380       0x10 C:\Users\kamer\AppData\Local\Temp\ccD0dtMf.o

.dbg_excpt      0xbfc00480        0x0
                0xbfc00480                . = (. + DEFINED (_DEBUGGER)?0x8:0x0)

.dbg_code       0xbfc02000        0x0
                0xbfc02000                . = (. + DEFINED (_DEBUGGER)?_DBG_CODE_SIZE:0x0)

.app_excpt      0x9fc01180       0x10
 *(.gen_handler)
 .gen_handler   0x9fc01180       0x10 C:\Users\kamer\AppData\Local\Temp\ccD0dtMf.o

.vector_0       0x9fc01200        0x8
 *(.vector_0)
 .vector_0      0x9fc01200        0x8 c:/program files/microchip/xc32/v2.41/bin/bin/../../lib/gcc/pic32mx/4.8.3/../../../../pic32mx/lib\libpic32.a(vector0.o)
                0x9fc01200                __vector_dispatch_0
                0x00000001                ASSERT (((_vector_spacing == 0x0) || (SIZEOF (.vector_0) <= (_vector_spacing << 0x5))), function at exception vector 0 too large)

.vector_1       0x9fc01220        0x8
 *(.vector_1)
 .vector_1      0x9fc01220        0x8 c:/program files/microchip/xc32/v2.41/bin/bin/../../lib/gcc/pic32mx/4.8.3/../../../../pic32mx/lib\libpic32.a(vector1.o)
                0x9fc01220                __vector_dispatch_1
                0x00000001                ASSERT (((_vector_spacing == 0x0) || (SIZEOF (.vector_1) <= (_vector_spacing << 0x5))), function at exception vector 1 too large)

.vector_2       0x9fc01240        0x8
 *(.vector_2)
 .vector_2      0x9fc01240        0x8 c:/program files/microchip/xc32/v2.41/bin/bin/../../lib/gcc/pic32mx/4.8.3/../../../../pic32mx/lib\libpic32.a(vector2.o)
                0x9fc01240                __vector_dispatch_2
                0x00000001                ASSERT (((_vector_spacing == 0x0) || (SIZEOF (.vector_2) <= (_vector_spacing << 0x5))), function at exception vector 2 too large)

.vector_3       0x9fc01260        0x8
 *(.vector_3)
 .vector_3      0x9fc01260        0x8 c:/program files/microchip/xc32/v2.41/bin/bin/../../lib/gcc/pic32mx/4.8.3/../../../../pic32mx/lib\libpic32.a(vector3.o)
                0x9fc01260                __vector_dispatch_3
                0x00000001                ASSERT (((_vector_spacing == 0x0) || (SIZEOF (.vector_3) <= (_vector_spacing << 0x5))), function at exception vector 3 too large)

.vector_4       0x9fc01280        0x8
 *(.vector_4)
 .vector_4      0x9fc01280        0x8 build/default/production/_ext/536368125/Tick.o
                0x9fc01280                __vector_dispatch_4
                0x00000001                ASSERT (((_vector_spacing == 0x0) || (SIZEOF (.vector_4) <= (_vector_spacing << 0x5))), function at exception vector 4 too large)

.vector_5       0x9fc012a0        0x8
 *(.vector_5)
 .vector_5      0x9fc012a0        0x8 c:/program files/microchip/xc32/v2.41/bin/bin/../../lib/gcc/pic32mx/4.8.3/../../../../pic32mx/lib\libpic32.a(vector5.o)
                0x9fc012a0                __vector_dispatch_5
                0x00000001                ASSERT (((_vector_spacing == 0x0) || (SIZEOF (.vector_5) <= (_vector_spacing << 0x5))), function at exception vector 5 too large)

.vector_6       0x9fc012c0        0x8
 *(.vector_6)
 .vector_6      0x9fc012c0        0x8 c:/program files/microchip/xc32/v2.41/bin/bin/../../lib/gcc/pic32mx/4.8.3/../../../../pic32mx/lib\libpic32.a(vector6.o)
                0x9fc012c0                __vector_dispatch_6
                0x00000001                ASSERT (((_vector_spacing == 0x0) || (SIZEOF (.vector_6) <= (_vector_spacing << 0x5))), function at exception vector 6 too large)

.vector_7       0x9fc012e0        0x8
 *(.vector_7)
 .vector_7      0x9fc012e0        0x8 c:/program files/microchip/xc32/v2.41/bin/bin/../../lib/gcc/pic32mx/4.8.3/../../../../pic32mx/lib\libpic32.a(vector7.o)
                0x9fc012e0                __vector_dispatch_7
                0x00000001                ASSERT (((_vector_spacing == 0x0) || (SIZEOF (.vector_7) <= (_vector_spacing << 0x5))), function at exception vector 7 too large)

.vector_8       0x9fc01300        0x8
 *(.vector_8)
 .vector_8      0x9fc01300        0x8 c:/program files/microchip/xc32/v2.41/bin/bin/../../lib/gcc/pic32mx/4.8.3/../../../../pic32mx/lib\libpic32.a(vector8.o)
                0x9fc01300                __vector_dispatch_8
                0x00000001                ASSERT (((_vector_spacing == 0x0) || (SIZEOF (.vector_8) <= (_vector_spacing << 0x5))), function at exception vector 8 too large)

.vector_9       0x9fc01320        0x8
 *(.vector_9)
 .vector_9      0x9fc01320        0x8 c:/program files/microchip/xc32/v2.41/bin/bin/../../lib/gcc/pic32mx/4.8.3/../../../../pic32mx/lib\libpic32.a(vector9.o)
                0x9fc01320                __vector_dispatch_9
                0x00000001                ASSERT (((_vector_spacing == 0x0) || (SIZEOF (.vector_9) <= (_vector_spacing << 0x5))), function at exception vector 9 too large)

.vector_10      0x9fc01340        0x8
 *(.vector_10)
 .vector_10     0x9fc01340        0x8 c:/program files/microchip/xc32/v2.41/bin/bin/../../lib/gcc/pic32mx/4.8.3/../../../../pic32mx/lib\libpic32.a(vector10.o)
                0x9fc01340                __vector_dispatch_10
                0x00000001                ASSERT (((_vector_spacing == 0x0) || (SIZEOF (.vector_10) <= (_vector_spacing << 0x5))), function at exception vector 10 too large)

.vector_11      0x9fc01360        0x8
 *(.vector_11)
 .vector_11     0x9fc01360        0x8 c:/program files/microchip/xc32/v2.41/bin/bin/../../lib/gcc/pic32mx/4.8.3/../../../../pic32mx/lib\libpic32.a(vector11.o)
                0x9fc01360                __vector_dispatch_11
                0x00000001                ASSERT (((_vector_spacing == 0x0) || (SIZEOF (.vector_11) <= (_vector_spacing << 0x5))), function at exception vector 11 too large)

.vector_12      0x9fc01380        0x8
 *(.vector_12)
 .vector_12     0x9fc01380        0x8 c:/program files/microchip/xc32/v2.41/bin/bin/../../lib/gcc/pic32mx/4.8.3/../../../../pic32mx/lib\libpic32.a(vector12.o)
                0x9fc01380                __vector_dispatch_12
                0x00000001                ASSERT (((_vector_spacing == 0x0) || (SIZEOF (.vector_12) <= (_vector_spacing << 0x5))), function at exception vector 12 too large)

.vector_13      0x9fc013a0        0x8
 *(.vector_13)
 .vector_13     0x9fc013a0        0x8 c:/program files/microchip/xc32/v2.41/bin/bin/../../lib/gcc/pic32mx/4.8.3/../../../../pic32mx/lib\libpic32.a(vector13.o)
                0x9fc013a0                __vector_dispatch_13
                0x00000001                ASSERT (((_vector_spacing == 0x0) || (SIZEOF (.vector_13) <= (_vector_spacing << 0x5))), function at exception vector 13 too large)

.vector_14      0x9fc013c0        0x8
 *(.vector_14)
 .vector_14     0x9fc013c0        0x8 c:/program files/microchip/xc32/v2.41/bin/bin/../../lib/gcc/pic32mx/4.8.3/../../../../pic32mx/lib\libpic32.a(vector14.o)
                0x9fc013c0                __vector_dispatch_14
                0x00000001                ASSERT (((_vector_spacing == 0x0) || (SIZEOF (.vector_14) <= (_vector_spacing << 0x5))), function at exception vector 14 too large)

.vector_15      0x9fc013e0        0x8
 *(.vector_15)
 .vector_15     0x9fc013e0        0x8 c:/program files/microchip/xc32/v2.41/bin/bin/../../lib/gcc/pic32mx/4.8.3/../../../../pic32mx/lib\libpic32.a(vector15.o)
                0x9fc013e0                __vector_dispatch_15
                0x00000001                ASSERT (((_vector_spacing == 0x0) || (SIZEOF (.vector_15) <= (_vector_spacing << 0x5))), function at exception vector 15 too large)

.vector_16      0x9fc01400        0x8
 *(.vector_16)
 .vector_16     0x9fc01400        0x8 c:/program files/microchip/xc32/v2.41/bin/bin/../../lib/gcc/pic32mx/4.8.3/../../../../pic32mx/lib\libpic32.a(vector16.o)
                0x9fc01400                __vector_dispatch_16
                0x00000001                ASSERT (((_vector_spacing == 0x0) || (SIZEOF (.vector_16) <= (_vector_spacing << 0x5))), function at exception vector 16 too large)

.vector_17      0x9fc01420        0x8
 *(.vector_17)
 .vector_17     0x9fc01420        0x8 c:/program files/microchip/xc32/v2.41/bin/bin/../../lib/gcc/pic32mx/4.8.3/../../../../pic32mx/lib\libpic32.a(vector17.o)
                0x9fc01420                __vector_dispatch_17
                0x00000001                ASSERT (((_vector_spacing == 0x0) || (SIZEOF (.vector_17) <= (_vector_spacing << 0x5))), function at exception vector 17 too large)

.vector_18      0x9fc01440        0x8
 *(.vector_18)
 .vector_18     0x9fc01440        0x8 c:/program files/microchip/xc32/v2.41/bin/bin/../../lib/gcc/pic32mx/4.8.3/../../../../pic32mx/lib\libpic32.a(vector18.o)
                0x9fc01440                __vector_dispatch_18
                0x00000001                ASSERT (((_vector_spacing == 0x0) || (SIZEOF (.vector_18) <= (_vector_spacing << 0x5))), function at exception vector 18 too large)

.vector_19      0x9fc01460        0x8
 *(.vector_19)
 .vector_19     0x9fc01460        0x8 c:/program files/microchip/xc32/v2.41/bin/bin/../../lib/gcc/pic32mx/4.8.3/../../../../pic32mx/lib\libpic32.a(vector19.o)
                0x9fc01460                __vector_dispatch_19
                0x00000001                ASSERT (((_vector_spacing == 0x0) || (SIZEOF (.vector_19) <= (_vector_spacing << 0x5))), function at exception vector 19 too large)

.vector_20      0x9fc01480        0x8
 *(.vector_20)
 .vector_20     0x9fc01480        0x8 c:/program files/microchip/xc32/v2.41/bin/bin/../../lib/gcc/pic32mx/4.8.3/../../../../pic32mx/lib\libpic32.a(vector20.o)
                0x9fc01480                __vector_dispatch_20
                0x00000001                ASSERT (((_vector_spacing == 0x0) || (SIZEOF (.vector_20) <= (_vector_spacing << 0x5))), function at exception vector 20 too large)

.vector_21      0x9fc014a0        0x8
 *(.vector_21)
 .vector_21     0x9fc014a0        0x8 c:/program files/microchip/xc32/v2.41/bin/bin/../../lib/gcc/pic32mx/4.8.3/../../../../pic32mx/lib\libpic32.a(vector21.o)
                0x9fc014a0                __vector_dispatch_21
                0x00000001                ASSERT (((_vector_spacing == 0x0) || (SIZEOF (.vector_21) <= (_vector_spacing << 0x5))), function at exception vector 21 too large)

.vector_22      0x9fc014c0        0x8
 *(.vector_22)
 .vector_22     0x9fc014c0        0x8 c:/program files/microchip/xc32/v2.41/bin/bin/../../lib/gcc/pic32mx/4.8.3/../../../../pic32mx/lib\libpic32.a(vector22.o)
                0x9fc014c0                __vector_dispatch_22
                0x00000001                ASSERT (((_vector_spacing == 0x0) || (SIZEOF (.vector_22) <= (_vector_spacing << 0x5))), function at exception vector 22 too large)

.vector_23      0x9fc014e0        0x8
 *(.vector_23)
 .vector_23     0x9fc014e0        0x8 c:/program files/microchip/xc32/v2.41/bin/bin/../../lib/gcc/pic32mx/4.8.3/../../../../pic32mx/lib\libpic32.a(vector23.o)
                0x9fc014e0                __vector_dispatch_23
                0x00000001                ASSERT (((_vector_spacing == 0x0) || (SIZEOF (.vector_23) <= (_vector_spacing << 0x5))), function at exception vector 23 too large)

.vector_24      0x9fc01500        0x8
 *(.vector_24)
 .vector_24     0x9fc01500        0x8 c:/program files/microchip/xc32/v2.41/bin/bin/../../lib/gcc/pic32mx/4.8.3/../../../../pic32mx/lib\libpic32.a(vector24.o)
                0x9fc01500                __vector_dispatch_24
                0x00000001                ASSERT (((_vector_spacing == 0x0) || (SIZEOF (.vector_24) <= (_vector_spacing << 0x5))), function at exception vector 24 too large)

.vector_25      0x9fc01520        0x8
 *(.vector_25)
 .vector_25     0x9fc01520        0x8 c:/program files/microchip/xc32/v2.41/bin/bin/../../lib/gcc/pic32mx/4.8.3/../../../../pic32mx/lib\libpic32.a(vector25.o)
                0x9fc01520                __vector_dispatch_25
                0x00000001                ASSERT (((_vector_spacing == 0x0) || (SIZEOF (.vector_25) <= (_vector_spacing << 0x5))), function at exception vector 25 too large)

.vector_26      0x9fc01540        0x8
 *(.vector_26)
 .vector_26     0x9fc01540        0x8 c:/program files/microchip/xc32/v2.41/bin/bin/../../lib/gcc/pic32mx/4.8.3/../../../../pic32mx/lib\libpic32.a(vector26.o)
                0x9fc01540                __vector_dispatch_26
                0x00000001                ASSERT (((_vector_spacing == 0x0) || (SIZEOF (.vector_26) <= (_vector_spacing << 0x5))), function at exception vector 26 too large)

.vector_27      0x9fc01560        0x8
 *(.vector_27)
 .vector_27     0x9fc01560        0x8 c:/program files/microchip/xc32/v2.41/bin/bin/../../lib/gcc/pic32mx/4.8.3/../../../../pic32mx/lib\libpic32.a(vector27.o)
                0x9fc01560                __vector_dispatch_27
                0x00000001                ASSERT (((_vector_spacing == 0x0) || (SIZEOF (.vector_27) <= (_vector_spacing << 0x5))), function at exception vector 27 too large)

.vector_28      0x9fc01580        0x8
 *(.vector_28)
 .vector_28     0x9fc01580        0x8 c:/program files/microchip/xc32/v2.41/bin/bin/../../lib/gcc/pic32mx/4.8.3/../../../../pic32mx/lib\libpic32.a(vector28.o)
                0x9fc01580                __vector_dispatch_28
                0x00000001                ASSERT (((_vector_spacing == 0x0) || (SIZEOF (.vector_28) <= (_vector_spacing << 0x5))), function at exception vector 28 too large)

.vector_29      0x9fc015a0        0x8
 *(.vector_29)
 .vector_29     0x9fc015a0        0x8 c:/program files/microchip/xc32/v2.41/bin/bin/../../lib/gcc/pic32mx/4.8.3/../../../../pic32mx/lib\libpic32.a(vector29.o)
                0x9fc015a0                __vector_dispatch_29
                0x00000001                ASSERT (((_vector_spacing == 0x0) || (SIZEOF (.vector_29) <= (_vector_spacing << 0x5))), function at exception vector 29 too large)

.vector_30      0x9fc015c0        0x8
 *(.vector_30)
 .vector_30     0x9fc015c0        0x8 c:/program files/microchip/xc32/v2.41/bin/bin/../../lib/gcc/pic32mx/4.8.3/../../../../pic32mx/lib\libpic32.a(vector30.o)
                0x9fc015c0                __vector_dispatch_30
                0x00000001                ASSERT (((_vector_spacing == 0x0) || (SIZEOF (.vector_30) <= (_vector_spacing << 0x5))), function at exception vector 30 too large)

.vector_31      0x9fc015e0        0x8
 *(.vector_31)
 .vector_31     0x9fc015e0        0x8 c:/program files/microchip/xc32/v2.41/bin/bin/../../lib/gcc/pic32mx/4.8.3/../../../../pic32mx/lib\libpic32.a(vector31.o)
                0x9fc015e0                __vector_dispatch_31
                0x00000001                ASSERT (((_vector_spacing == 0x0) || (SIZEOF (.vector_31) <= (_vector_spacing << 0x5))), function at exception vector 31 too large)

.vector_32      0x9fc01600        0x8
 *(.vector_32)
 .vector_32     0x9fc01600        0x8 c:/program files/microchip/xc32/v2.41/bin/bin/../../lib/gcc/pic32mx/4.8.3/../../../../pic32mx/lib\libpic32.a(vector32.o)
                0x9fc01600                __vector_dispatch_32
                0x00000001                ASSERT (((_vector_spacing == 0x0) || (SIZEOF (.vector_32) <= (_vector_spacing << 0x5))), function at exception vector 32 too large)

.vector_33      0x9fc01620        0x8
 *(.vector_33)
 .vector_33     0x9fc01620        0x8 c:/program files/microchip/xc32/v2.41/bin/bin/../../lib/gcc/pic32mx/4.8.3/../../../../pic32mx/lib\libpic32.a(vector33.o)
                0x9fc01620                __vector_dispatch_33
                0x00000001                ASSERT (((_vector_spacing == 0x0) || (SIZEOF (.vector_33) <= (_vector_spacing << 0x5))), function at exception vector 33 too large)

.vector_34      0x9fc01640        0x8
 *(.vector_34)
 .vector_34     0x9fc01640        0x8 c:/program files/microchip/xc32/v2.41/bin/bin/../../lib/gcc/pic32mx/4.8.3/../../../../pic32mx/lib\libpic32.a(vector34.o)
                0x9fc01640                __vector_dispatch_34
                0x00000001                ASSERT (((_vector_spacing == 0x0) || (SIZEOF (.vector_34) <= (_vector_spacing << 0x5))), function at exception vector 34 too large)

.vector_35      0x9fc01660        0x8
 *(.vector_35)
 .vector_35     0x9fc01660        0x8 c:/program files/microchip/xc32/v2.41/bin/bin/../../lib/gcc/pic32mx/4.8.3/../../../../pic32mx/lib\libpic32.a(vector35.o)
                0x9fc01660                __vector_dispatch_35
                0x00000001                ASSERT (((_vector_spacing == 0x0) || (SIZEOF (.vector_35) <= (_vector_spacing << 0x5))), function at exception vector 35 too large)

.vector_36      0x9fc01680        0x8
 *(.vector_36)
 .vector_36     0x9fc01680        0x8 c:/program files/microchip/xc32/v2.41/bin/bin/../../lib/gcc/pic32mx/4.8.3/../../../../pic32mx/lib\libpic32.a(vector36.o)
                0x9fc01680                __vector_dispatch_36
                0x00000001                ASSERT (((_vector_spacing == 0x0) || (SIZEOF (.vector_36) <= (_vector_spacing << 0x5))), function at exception vector 36 too large)

.vector_37      0x9fc016a0        0x8
 *(.vector_37)
 .vector_37     0x9fc016a0        0x8 c:/program files/microchip/xc32/v2.41/bin/bin/../../lib/gcc/pic32mx/4.8.3/../../../../pic32mx/lib\libpic32.a(vector37.o)
                0x9fc016a0                __vector_dispatch_37
                0x00000001                ASSERT (((_vector_spacing == 0x0) || (SIZEOF (.vector_37) <= (_vector_spacing << 0x5))), function at exception vector 37 too large)

.vector_38      0x9fc016c0        0x8
 *(.vector_38)
 .vector_38     0x9fc016c0        0x8 c:/program files/microchip/xc32/v2.41/bin/bin/../../lib/gcc/pic32mx/4.8.3/../../../../pic32mx/lib\libpic32.a(vector38.o)
                0x9fc016c0                __vector_dispatch_38
                0x00000001                ASSERT (((_vector_spacing == 0x0) || (SIZEOF (.vector_38) <= (_vector_spacing << 0x5))), function at exception vector 38 too large)

.vector_39      0x9fc016e0        0x8
 *(.vector_39)
 .vector_39     0x9fc016e0        0x8 c:/program files/microchip/xc32/v2.41/bin/bin/../../lib/gcc/pic32mx/4.8.3/../../../../pic32mx/lib\libpic32.a(vector39.o)
                0x9fc016e0                __vector_dispatch_39
                0x00000001                ASSERT (((_vector_spacing == 0x0) || (SIZEOF (.vector_39) <= (_vector_spacing << 0x5))), function at exception vector 39 too large)

.vector_40      0x9fc01700        0x8
 *(.vector_40)
 .vector_40     0x9fc01700        0x8 c:/program files/microchip/xc32/v2.41/bin/bin/../../lib/gcc/pic32mx/4.8.3/../../../../pic32mx/lib\libpic32.a(vector40.o)
                0x9fc01700                __vector_dispatch_40
                0x00000001                ASSERT (((_vector_spacing == 0x0) || (SIZEOF (.vector_40) <= (_vector_spacing << 0x5))), function at exception vector 40 too large)

.vector_41      0x9fc01720        0x8
 *(.vector_41)
 .vector_41     0x9fc01720        0x8 c:/program files/microchip/xc32/v2.41/bin/bin/../../lib/gcc/pic32mx/4.8.3/../../../../pic32mx/lib\libpic32.a(vector41.o)
                0x9fc01720                __vector_dispatch_41
                0x00000001                ASSERT (((_vector_spacing == 0x0) || (SIZEOF (.vector_41) <= (_vector_spacing << 0x5))), function at exception vector 41 too large)

.vector_42      0x9fc01740        0x8
 *(.vector_42)
 .vector_42     0x9fc01740        0x8 c:/program files/microchip/xc32/v2.41/bin/bin/../../lib/gcc/pic32mx/4.8.3/../../../../pic32mx/lib\libpic32.a(vector42.o)
                0x9fc01740                __vector_dispatch_42
                0x00000001                ASSERT (((_vector_spacing == 0x0) || (SIZEOF (.vector_42) <= (_vector_spacing << 0x5))), function at exception vector 42 too large)

.vector_43      0x9fc01760        0x8
 *(.vector_43)
 .vector_43     0x9fc01760        0x8 c:/program files/microchip/xc32/v2.41/bin/bin/../../lib/gcc/pic32mx/4.8.3/../../../../pic32mx/lib\libpic32.a(vector43.o)
                0x9fc01760                __vector_dispatch_43
                0x00000001                ASSERT (((_vector_spacing == 0x0) || (SIZEOF (.vector_43) <= (_vector_spacing << 0x5))), function at exception vector 43 too large)

.vector_44      0x9fc01780        0x8
 *(.vector_44)
 .vector_44     0x9fc01780        0x8 c:/program files/microchip/xc32/v2.41/bin/bin/../../lib/gcc/pic32mx/4.8.3/../../../../pic32mx/lib\libpic32.a(vector44.o)
                0x9fc01780                __vector_dispatch_44
                0x00000001                ASSERT (((_vector_spacing == 0x0) || (SIZEOF (.vector_44) <= (_vector_spacing << 0x5))), function at exception vector 44 too large)

.vector_45      0x9fc017a0        0x8
 *(.vector_45)
 .vector_45     0x9fc017a0        0x8 c:/program files/microchip/xc32/v2.41/bin/bin/../../lib/gcc/pic32mx/4.8.3/../../../../pic32mx/lib\libpic32.a(vector45.o)
                0x9fc017a0                __vector_dispatch_45
                0x00000001                ASSERT (((_vector_spacing == 0x0) || (SIZEOF (.vector_45) <= (_vector_spacing << 0x5))), function at exception vector 45 too large)

.vector_46      0x9fc017c0        0x8
 *(.vector_46)
 .vector_46     0x9fc017c0        0x8 c:/program files/microchip/xc32/v2.41/bin/bin/../../lib/gcc/pic32mx/4.8.3/../../../../pic32mx/lib\libpic32.a(vector46.o)
                0x9fc017c0                __vector_dispatch_46
                0x00000001                ASSERT (((_vector_spacing == 0x0) || (SIZEOF (.vector_46) <= (_vector_spacing << 0x5))), function at exception vector 46 too large)

.vector_47      0x9fc017e0        0x8
 *(.vector_47)
 .vector_47     0x9fc017e0        0x8 c:/program files/microchip/xc32/v2.41/bin/bin/../../lib/gcc/pic32mx/4.8.3/../../../../pic32mx/lib\libpic32.a(vector47.o)
                0x9fc017e0                __vector_dispatch_47
                0x00000001                ASSERT (((_vector_spacing == 0x0) || (SIZEOF (.vector_47) <= (_vector_spacing << 0x5))), function at exception vector 47 too large)

.vector_48      0x9fc01800        0x8
 *(.vector_48)
 .vector_48     0x9fc01800        0x8 c:/program files/microchip/xc32/v2.41/bin/bin/../../lib/gcc/pic32mx/4.8.3/../../../../pic32mx/lib\libpic32.a(vector48.o)
                0x9fc01800                __vector_dispatch_48
                0x00000001                ASSERT (((_vector_spacing == 0x0) || (SIZEOF (.vector_48) <= (_vector_spacing << 0x5))), function at exception vector 48 too large)

.vector_49      0x9fc01820        0x8
 *(.vector_49)
 .vector_49     0x9fc01820        0x8 c:/program files/microchip/xc32/v2.41/bin/bin/../../lib/gcc/pic32mx/4.8.3/../../../../pic32mx/lib\libpic32.a(vector49.o)
                0x9fc01820                __vector_dispatch_49
                0x00000001                ASSERT (((_vector_spacing == 0x0) || (SIZEOF (.vector_49) <= (_vector_spacing << 0x5))), function at exception vector 49 too large)

.vector_50      0x9fc01840        0x8
 *(.vector_50)
 .vector_50     0x9fc01840        0x8 c:/program files/microchip/xc32/v2.41/bin/bin/../../lib/gcc/pic32mx/4.8.3/../../../../pic32mx/lib\libpic32.a(vector50.o)
                0x9fc01840                __vector_dispatch_50
                0x00000001                ASSERT (((_vector_spacing == 0x0) || (SIZEOF (.vector_50) <= (_vector_spacing << 0x5))), function at exception vector 50 too large)

.vector_51      0x9fc01860        0x8
 *(.vector_51)
 .vector_51     0x9fc01860        0x8 c:/program files/microchip/xc32/v2.41/bin/bin/../../lib/gcc/pic32mx/4.8.3/../../../../pic32mx/lib\libpic32.a(vector51.o)
                0x9fc01860                __vector_dispatch_51
                0x00000001                ASSERT (((_vector_spacing == 0x0) || (SIZEOF (.vector_51) <= (_vector_spacing << 0x5))), function at exception vector 51 too large)

.vector_52      0x9fc01880        0x0
 *(.vector_52)
                0x00000001                ASSERT (((_vector_spacing == 0x0) || (SIZEOF (.vector_52) <= (_vector_spacing << 0x5))), function at exception vector 52 too large)

.vector_53      0x9fc018a0        0x0
 *(.vector_53)
                0x00000001                ASSERT (((_vector_spacing == 0x0) || (SIZEOF (.vector_53) <= (_vector_spacing << 0x5))), function at exception vector 53 too large)

.vector_54      0x9fc018c0        0x0
 *(.vector_54)
                0x00000001                ASSERT (((_vector_spacing == 0x0) || (SIZEOF (.vector_54) <= (_vector_spacing << 0x5))), function at exception vector 54 too large)

.vector_55      0x9fc018e0        0x0
 *(.vector_55)
                0x00000001                ASSERT (((_vector_spacing == 0x0) || (SIZEOF (.vector_55) <= (_vector_spacing << 0x5))), function at exception vector 55 too large)

.vector_56      0x9fc01900        0x0
 *(.vector_56)
                0x00000001                ASSERT (((_vector_spacing == 0x0) || (SIZEOF (.vector_56) <= (_vector_spacing << 0x5))), function at exception vector 56 too large)

.vector_57      0x9fc01920        0x0
 *(.vector_57)
                0x00000001                ASSERT (((_vector_spacing == 0x0) || (SIZEOF (.vector_57) <= (_vector_spacing << 0x5))), function at exception vector 57 too large)

.vector_58      0x9fc01940        0x0
 *(.vector_58)
                0x00000001                ASSERT (((_vector_spacing == 0x0) || (SIZEOF (.vector_58) <= (_vector_spacing << 0x5))), function at exception vector 58 too large)

.vector_59      0x9fc01960        0x0
 *(.vector_59)
                0x00000001                ASSERT (((_vector_spacing == 0x0) || (SIZEOF (.vector_59) <= (_vector_spacing << 0x5))), function at exception vector 59 too large)

.vector_60      0x9fc01980        0x0
 *(.vector_60)
                0x00000001                ASSERT (((_vector_spacing == 0x0) || (SIZEOF (.vector_60) <= (_vector_spacing << 0x5))), function at exception vector 60 too large)

.vector_61      0x9fc019a0        0x0
 *(.vector_61)
                0x00000001                ASSERT (((_vector_spacing == 0x0) || (SIZEOF (.vector_61) <= (_vector_spacing << 0x5))), function at exception vector 61 too large)

.vector_62      0x9fc019c0        0x0
 *(.vector_62)
                0x00000001                ASSERT (((_vector_spacing == 0x0) || (SIZEOF (.vector_62) <= (_vector_spacing << 0x5))), function at exception vector 62 too large)

.vector_63      0x9fc019e0        0x0
 *(.vector_63)
                0x00000001                ASSERT (((_vector_spacing == 0x0) || (SIZEOF (.vector_63) <= (_vector_spacing << 0x5))), function at exception vector 63 too large)

.startup
 *(.startup)

.text           0x9d000000        0x0
 *(.stub .gnu.linkonce.t.*)
 *(.text.*personality*)
 *(.mips16.fn.*)
 *(.mips16.call.*)
 *(.gnu.warning)
                0x9d000000                . = ALIGN (0x4)

.init           0x9d000000        0x0
 *crti.o(.init)
 *crtbegin.o(.init)
 *(EXCLUDE_FILE(*crtn.o *crtend?.o *crtend.o) .init)
 *crtend.o(.init)
 *crtn.o(.init)
                0x9d000000                . = ALIGN (0x4)

.fini           0x9d000000        0x0
 *(.fini)
                0x9d000000                . = ALIGN (0x4)

.preinit_array  0x9d000000        0x0
                0x9d000000                PROVIDE (__preinit_array_start, .)
 *(.preinit_array)
                0x9d000000                PROVIDE (__preinit_array_end, .)
                0x9d000000                . = ALIGN (0x4)

.init_array     0x9d000000        0x0
                0x9d000000                PROVIDE (__init_array_start, .)
 *(SORT(.init_array.*))
 *(.init_array)
                0x9d000000                PROVIDE (__init_array_end, .)
                0x9d000000                . = ALIGN (0x4)

.fini_array     0x9d000000        0x0
                0x9d000000                PROVIDE (__fini_array_start, .)
 *(SORT(.fini_array.*))
 *(.fini_array)
                0x9d000000                PROVIDE (__fini_array_end, .)
                0x9d000000                . = ALIGN (0x4)

.ctors          0x9d000000        0x0
 *crtbegin.o(.ctors)
 *crtbegin?.o(.ctors)
 *(EXCLUDE_FILE(*crtend?.o *crtend.o) .ctors)
 *(SORT(.ctors.*))
 *(.ctors)
                0x9d000000                . = ALIGN (0x4)

.dtors          0x9d000000        0x0
 *crtbegin.o(.dtors)
 *crtbegin?.o(.dtors)
 *(EXCLUDE_FILE(*crtend?.o *crtend.o) .dtors)
 *(SORT(.dtors.*))
 *(.dtors)
                0x9d000000                . = ALIGN (0x4)

.rodata         0x9d000000        0x0
 *(.gnu.linkonce.r.*)
 *(.rodata1)
                0x9d000000                . = ALIGN (0x4)

.sdata2         0x9fc00490        0x0
 *(.sdata2 .sdata2.* .gnu.linkonce.s2.*)
                0x9fc00490                . = ALIGN (0x4)

.sbss2          0x9fc00490        0x0
 *(.sbss2 .sbss2.* .gnu.linkonce.sb2.*)
                0x9fc00490                . = ALIGN (0x4)

.eh_frame_hdr
 *(.eh_frame_hdr)
                0x9fc00490                . = ALIGN (0x4)

.eh_frame
 *(.eh_frame)
                0x9fc00490                . = ALIGN (0x4)

.gcc_except_table
 *(.gcc_except_table .gcc_except_table.*)
                0x9fc00490                . = ALIGN (0x4)

.dbg_data       0xa0000000        0x0
                0xa0000000                . = (. + DEFINED (_DEBUGGER)?0x200:0x0)

.jcr            0xa0000000        0x0
 *(.jcr)
                0xa0000000                . = ALIGN (0x4)

.eh_frame
 *(.eh_frame)
                0xa0000000                . = ALIGN (0x4)

.gcc_except_table
 *(.gcc_except_table .gcc_except_table.*)
                0xa0000000                . = ALIGN (0x4)

.persist        0xa0000000        0x8
                0xa0000000                _persist_begin = .
 *(.persist .persist.*)
 *(.pbss .pbss.*)
 .pbss          0xa0000000        0x4 build/default/production/_ext/536368125/DNS.o
 .pbss          0xa0000004        0x2 build/default/production/_ext/536368125/TCP.o
 .pbss          0xa0000006        0x2 build/default/production/_ext/536368125/UDP.o
                0xa0000008                . = ALIGN (0x4)
                0xa0000008                _persist_end = .

.data           0xa0000008        0x0
 *(.gnu.linkonce.d.*)
 *(.data1)
                0xa0000008                . = ALIGN (0x4)
                0xa0000008                . = .
                0xa0008000                _gp = (ALIGN (0x10) + 0x7ff0)

.got            0xa0000008        0x0
 *(.got.plt)
 *(.got)
                0xa0000008                . = ALIGN (0x4)

.sdata          0xa0000008       0x20
                0xa0000008                _sdata_begin = .
 *(.sdata .sdata.* .gnu.linkonce.s.*)
 .sdata         0xa0000008        0xc build/default/production/_ext/1472/GenericTCPClient.o
 .sdata         0xa0000014        0x4 build/default/production/_ext/536368125/DHCPs.o
                0xa0000014                bDHCPServerEnabled
 .sdata         0xa0000018        0x8 build/default/production/_ext/536368125/DNS.o
 .sdata         0xa0000020        0x4 build/default/production/_ext/536368125/Helpers.o
 .sdata         0xa0000024        0x2 build/default/production/_ext/536368125/TCP.o
 .sdata         0xa0000026        0x2 build/default/production/_ext/536368125/UDP.o
                0xa0000028                . = ALIGN (0x4)
                0xa0000028                _sdata_end = .

.lit8
 *(.lit8)

.lit4
 *(.lit4)
                0xa0000028                . = ALIGN (0x4)
                0xa0000028                _data_end = .
                0xa0000028                _bss_begin = .

.sbss           0xa0000028       0xcc
                0xa0000028                _sbss_begin = .
 *(.dynsbss)
 *(.sbss .sbss.* .gnu.linkonce.sb.*)
 .sbss          0xa0000028        0x4 build/default/production/_ext/1472/GenericTCPClient.o
 .sbss          0xa000002c        0x8 build/default/production/_ext/1472/GenericTCPServer.o
 .sbss          0xa0000034        0x4 build/default/production/_ext/536368125/ARP.o
 .sbss          0xa0000038        0x8 build/default/production/_ext/536368125/Announce.o
 .sbss          0xa0000040        0xc build/default/production/_ext/536368125/DHCPs.o
 .sbss          0xa000004c       0x14 build/default/production/_ext/536368125/DNS.o
 .sbss          0xa0000060       0x40 build/default/production/_ext/536368125/ETHPIC32IntMac.o
                0xa000008c                _stackMgrRxOkPkts
                0xa0000090                _stackMgrRxBadPkts
                0xa0000094                _stackMgrInGetHdr
                0xa0000098                _stackMgrRxDiscarded
                0xa000009c                _stackMgrTxNotReady
 .sbss          0xa00000a0        0x4 build/default/production/_ext/536368125/IP.o
 .sbss          0xa00000a4        0x8 build/default/production/_ext/536368125/StackTsk.o
 .sbss          0xa00000ac        0xc build/default/production/_ext/536368125/Telnet.o
 .sbss          0xa00000b8        0xc build/default/production/_ext/536368125/Tick.o
 .sbss          0xa00000c4        0x8 build/default/production/_ext/536368125/UDP.o
 .sbss          0xa00000cc        0xc build/default/production/_ext/1472/MainDemo.o
 .sbss          0xa00000d8        0x8 build/default/production/_ext/1472/LEDTCPServer.o
 *(.scommon)
 .scommon       0xa00000e0        0x4 build/default/production/_ext/536368125/ETHPIC32ExtPhy.o
                0xa00000e0                _PhyAdd
 .scommon       0xa00000e4        0x5 build/default/production/_ext/536368125/UDP.o
                0xa00000e4                UDPRxCount
                0xa00000e6                UDPTxCount
                0xa00000e8                activeUDPSocket
 *fill*         0xa00000e9        0x3 
 .scommon       0xa00000ec        0x8 build/default/production/_ext/1472/MainDemo.o
                0xa00000ec                AN0String
                0xa00000f4                _sbss_end = .
                0xa00000f4                . = ALIGN (0x4)

.bss            0xa00000f4      0x120
 *(.dynbss)
 *(COMMON)
 COMMON         0xa00000f4        0xa build/default/production/_ext/536368125/StackTsk.o
                0xa00000f4                remoteNode
 *fill*         0xa00000fe        0x2 
 COMMON         0xa0000100       0xe0 build/default/production/_ext/536368125/UDP.o
                0xa0000100                UDPSocketInfo
 COMMON         0xa00001e0       0x33 build/default/production/_ext/1472/MainDemo.o
                0xa00001e0                AppConfig
                0xa0000214                . = ALIGN ((. != 0x0)?0x4:0x1)
 *fill*         0xa0000213        0x1 
                0xa0000214                . = ALIGN (0x4)
                0xa0000214                _end = .
                0xa0000214                _bss_end = .
                0x00020000                _bmxdudba_address = 0x20000
                0x00020000                _bmxdupba_address = 0x20000

/DISCARD/
 *(.pdr)
 *(.rel.dyn)
 *(.note.GNU-stack)
 *(.note.GNU-stack)
 *(.gnu_debuglink)
 *(.gnu.lto_*)
 *(.discard)

.gptab.sdata
 *(.gptab.data)
 *(.gptab.sdata)

.gptab.sbss
 *(.gptab.bss)
 *(.gptab.sbss)

.mdebug.abi32   0xa0000214        0x0
 *(.mdebug.abi32)
 .mdebug.abi32  0xa0000214        0x0 build/default/production/_ext/1472/BerkeleyTCPClientDemo.o
 .mdebug.abi32  0xa0000214        0x0 build/default/production/_ext/1472/BerkeleyTCPServerDemo.o
 .mdebug.abi32  0xa0000214        0x0 build/default/production/_ext/1472/BerkeleyUDPClientDemo.o
 .mdebug.abi32  0xa0000214        0x0 build/default/production/_ext/1472/GenericTCPClient.o
 .mdebug.abi32  0xa0000214        0x0 build/default/production/_ext/1472/GenericTCPServer.o
 .mdebug.abi32  0xa0000214        0x0 build/default/production/_ext/1472/PingDemo.o
 .mdebug.abi32  0xa0000214        0x0 build/default/production/_ext/1472/SMTPDemo.o
 .mdebug.abi32  0xa0000214        0x0 build/default/production/_ext/1472/UARTConfig.o
 .mdebug.abi32  0xa0000214        0x0 build/default/production/_ext/536368125/ARCFOUR.o
 .mdebug.abi32  0xa0000214        0x0 build/default/production/_ext/536368125/ARP.o
 .mdebug.abi32  0xa0000214        0x0 build/default/production/_ext/536368125/Announce.o
 .mdebug.abi32  0xa0000214        0x0 build/default/production/_ext/536368125/AutoIP.o
 .mdebug.abi32  0xa0000214        0x0 build/default/production/_ext/536368125/BerkeleyAPI.o
 .mdebug.abi32  0xa0000214        0x0 build/default/production/_ext/536368125/BigInt.o
 .mdebug.abi32  0xa0000214        0x0 build/default/production/_ext/536368125/DHCP.o
 .mdebug.abi32  0xa0000214        0x0 build/default/production/_ext/536368125/DHCPs.o
 .mdebug.abi32  0xa0000214        0x0 build/default/production/_ext/536368125/DNS.o
 .mdebug.abi32  0xa0000214        0x0 build/default/production/_ext/536368125/DNSs.o
 .mdebug.abi32  0xa0000214        0x0 build/default/production/_ext/536368125/Delay.o
 .mdebug.abi32  0xa0000214        0x0 build/default/production/_ext/536368125/DynDNS.o
 .mdebug.abi32  0xa0000214        0x0 build/default/production/_ext/536368125/ENC28J60.o
 .mdebug.abi32  0xa0000214        0x0 build/default/production/_ext/536368125/ENCX24J600.o
 .mdebug.abi32  0xa0000214        0x0 build/default/production/_ext/536368125/ETHPIC32ExtPhy.o
 .mdebug.abi32  0xa0000214        0x0 build/default/production/_ext/536368125/ETHPIC32ExtPhySMSC8720.o
 .mdebug.abi32  0xa0000214        0x0 build/default/production/_ext/536368125/ETHPIC32IntMac.o
 .mdebug.abi32  0xa0000214        0x0 build/default/production/_ext/536368125/FTP.o
 .mdebug.abi32  0xa0000214        0x0 build/default/production/_ext/536368125/FileSystem.o
 .mdebug.abi32  0xa0000214        0x0 build/default/production/_ext/536368125/HTTP2.o
 .mdebug.abi32  0xa0000214        0x0 build/default/production/_ext/536368125/Hashes.o
 .mdebug.abi32  0xa0000214        0x0 build/default/production/_ext/536368125/Helpers.o
 .mdebug.abi32  0xa0000214        0x0 build/default/production/_ext/536368125/ICMP.o
 .mdebug.abi32  0xa0000214        0x0 build/default/production/_ext/536368125/IP.o
 .mdebug.abi32  0xa0000214        0x0 build/default/production/_ext/536368125/LCDBlocking.o
 .mdebug.abi32  0xa0000214        0x0 build/default/production/_ext/536368125/MPFS2.o
 .mdebug.abi32  0xa0000214        0x0 build/default/production/_ext/536368125/NBNS.o
 .mdebug.abi32  0xa0000214        0x0 build/default/production/_ext/536368125/RSA.o
 .mdebug.abi32  0xa0000214        0x0 build/default/production/_ext/536368125/Random.o
 .mdebug.abi32  0xa0000214        0x0 build/default/production/_ext/536368125/Reboot.o
 .mdebug.abi32  0xa0000214        0x0 build/default/production/_ext/536368125/SMTP.o
 .mdebug.abi32  0xa0000214        0x0 build/default/production/_ext/536368125/SNMP.o
 .mdebug.abi32  0xa0000214        0x0 build/default/production/_ext/536368125/SNMPv3.o
 .mdebug.abi32  0xa0000214        0x0 build/default/production/_ext/536368125/SNMPv3USM.o
 .mdebug.abi32  0xa0000214        0x0 build/default/production/_ext/536368125/SNTP.o
 .mdebug.abi32  0xa0000214        0x0 build/default/production/_ext/536368125/SPIEEPROM.o
 .mdebug.abi32  0xa0000214        0x0 build/default/production/_ext/536368125/SPIFlash.o
 .mdebug.abi32  0xa0000214        0x0 build/default/production/_ext/536368125/SPIRAM.o
 .mdebug.abi32  0xa0000214        0x0 build/default/production/_ext/536368125/SSL.o
 .mdebug.abi32  0xa0000214        0x0 build/default/production/_ext/536368125/StackTsk.o
 .mdebug.abi32  0xa0000214        0x0 build/default/production/_ext/536368125/TCP.o
 .mdebug.abi32  0xa0000214        0x0 build/default/production/_ext/536368125/TCPPerformanceTest.o
 .mdebug.abi32  0xa0000214        0x0 build/default/production/_ext/536368125/TFTPc.o
 .mdebug.abi32  0xa0000214        0x0 build/default/production/_ext/536368125/Telnet.o
 .mdebug.abi32  0xa0000214        0x0 build/default/production/_ext/536368125/Tick.o
 .mdebug.abi32  0xa0000214        0x0 build/default/production/_ext/536368125/UART.o
 .mdebug.abi32  0xa0000214        0x0 build/default/production/_ext/536368125/UART2TCPBridge.o
 .mdebug.abi32  0xa0000214        0x0 build/default/production/_ext/536368125/UDP.o
 .mdebug.abi32  0xa0000214        0x0 build/default/production/_ext/536368125/UDPPerformanceTest.o
 .mdebug.abi32  0xa0000214        0x0 build/default/production/_ext/536368125/ZeroconfHelper.o
 .mdebug.abi32  0xa0000214        0x0 build/default/production/_ext/536368125/ZeroconfLinkLocal.o
 .mdebug.abi32  0xa0000214        0x0 build/default/production/_ext/536368125/ZeroconfMulticastDNS.o
 .mdebug.abi32  0xa0000214        0x0 build/default/production/_ext/1472/CustomHTTPApp.o
 .mdebug.abi32  0xa0000214        0x0 build/default/production/_ext/1472/CustomSNMPApp.o
 .mdebug.abi32  0xa0000214        0x0 build/default/production/_ext/1472/CustomSSLCert.o
 .mdebug.abi32  0xa0000214        0x0 build/default/production/_ext/1472/MainDemo.o
 .mdebug.abi32  0xa0000214        0x0 build/default/production/_ext/1472/LEDTCPServer.o
 .mdebug.abi32  0xa0000214        0x0 c:/program files/microchip/xc32/v2.41/bin/bin/../../lib/gcc/pic32mx/4.8.3/../../../../pic32mx/lib\libmchp_peripheral.a(read_core_timer_lib.o)
 .mdebug.abi32  0xa0000214        0x0 c:/program files/microchip/xc32/v2.41/bin/bin/../../lib/gcc/pic32mx/4.8.3/../../../../pic32mx/lib\libmchp_peripheral_32MX795F512L.a(eth_ack_packet_lib.o)
 .mdebug.abi32  0xa0000214        0x0 c:/program files/microchip/xc32/v2.41/bin/bin/../../lib/gcc/pic32mx/4.8.3/../../../../pic32mx/lib\libmchp_peripheral_32MX795F512L.a(eth_descriptors_add_lib.o)
 .mdebug.abi32  0xa0000214        0x0 c:/program files/microchip/xc32/v2.41/bin/bin/../../lib/gcc/pic32mx/4.8.3/../../../../pic32mx/lib\libmchp_peripheral_32MX795F512L.a(eth_init_lib.o)
 .mdebug.abi32  0xa0000214        0x0 c:/program files/microchip/xc32/v2.41/bin/bin/../../lib/gcc/pic32mx/4.8.3/../../../../pic32mx/lib\libmchp_peripheral_32MX795F512L.a(eth_mac_open_lib.o)
 .mdebug.abi32  0xa0000214        0x0 c:/program files/microchip/xc32/v2.41/bin/bin/../../lib/gcc/pic32mx/4.8.3/../../../../pic32mx/lib\libmchp_peripheral_32MX795F512L.a(eth_mac_set_address_max_lib.o)
 .mdebug.abi32  0xa0000214        0x0 c:/program files/microchip/xc32/v2.41/bin/bin/../../lib/gcc/pic32mx/4.8.3/../../../../pic32mx/lib\libmchp_peripheral_32MX795F512L.a(eth_rx_buffers_append_lib.o)
 .mdebug.abi32  0xa0000214        0x0 c:/program files/microchip/xc32/v2.41/bin/bin/../../lib/gcc/pic32mx/4.8.3/../../../../pic32mx/lib\libmchp_peripheral_32MX795F512L.a(eth_rx_filters_lib.o)
 .mdebug.abi32  0xa0000214        0x0 c:/program files/microchip/xc32/v2.41/bin/bin/../../lib/gcc/pic32mx/4.8.3/../../../../pic32mx/lib\libmchp_peripheral_32MX795F512L.a(eth_rx_get_packet_lib.o)
 .mdebug.abi32  0xa0000214        0x0 c:/program files/microchip/xc32/v2.41/bin/bin/../../lib/gcc/pic32mx/4.8.3/../../../../pic32mx/lib\libmchp_peripheral_32MX795F512L.a(eth_rx_set_buffer_size_lib.o)
 .mdebug.abi32  0xa0000214        0x0 c:/program files/microchip/xc32/v2.41/bin/bin/../../lib/gcc/pic32mx/4.8.3/../../../../pic32mx/lib\libmchp_peripheral_32MX795F512L.a(eth_tx_packet_lib.o)
 .mdebug.abi32  0xa0000214        0x0 c:/program files/microchip/xc32/v2.41/bin/bin/../../lib/gcc/pic32mx/4.8.3/../../../../pic32mx/lib\libmchp_peripheral_32MX795F512L.a(_eth_append_busy_list_lib.o)
 .mdebug.abi32  0xa0000214        0x0 c:/program files/microchip/xc32/v2.41/bin/bin/../../lib/gcc/pic32mx/4.8.3/../../../../pic32mx/lib\libmchp_peripheral_32MX795F512L.a(eth_miim_access.o)
 .mdebug.abi32  0xa0000214        0x0 c:/program files/microchip/xc32/v2.41/bin/bin/../../lib/gcc/pic32mx/4.8.3/../../../../pic32mx/lib\libmchp_peripheral_32MX795F512L.a(pcache.o)
 .mdebug.abi32  0xa0000214        0x0 c:/program files/microchip/xc32/v2.41/bin/bin/../../lib/gcc/pic32mx/4.8.3/../../../../pic32mx/lib\libmchp_peripheral_32MX795F512L.a(int_disable_interrupts_lib.o)
 .mdebug.abi32  0xa0000214        0x0 c:/program files/microchip/xc32/v2.41/bin/bin/../../lib/gcc/pic32mx/4.8.3/../../../../pic32mx/lib\libmchp_peripheral_32MX795F512L.a(int_restore_interrupts_lib.o)
 .mdebug.abi32  0xa0000214        0x0 c:/program files/microchip/xc32/v2.41/bin/bin/../../lib/gcc/pic32mx/4.8.3/../../../../pic32mx/lib\libmchp_peripheral_32MX795F512L.a(int_enable_mv_int_lib.o)
 .mdebug.abi32  0xa0000214        0x0 c:/program files/microchip/xc32/v2.41/bin/bin/../../lib/gcc/pic32mx/4.8.3/../../../../pic32mx/lib\libmchp_peripheral_32MX795F512L.a(int_tbl_lib.o)
 .mdebug.abi32  0xa0000214        0x0 c:/program files/microchip/xc32/v2.41/bin/bin/../../lib/gcc/pic32mx/4.8.3/../../../../pic32mx/lib\libmchp_peripheral_32MX795F512L.a(port_set_pins_digital_in_lib.o)
 .mdebug.abi32  0xa0000214        0x0 c:/program files/microchip/xc32/v2.41/bin/bin/../../lib/gcc/pic32mx/4.8.3/../../../../pic32mx/lib\libmchp_peripheral_32MX795F512L.a(port_set_pins_digital_out_lib.o)
 .mdebug.abi32  0xa0000214        0x0 c:/program files/microchip/xc32/v2.41/bin/bin/../../lib/gcc/pic32mx/4.8.3/../../../../pic32mx/lib\libmchp_peripheral_32MX795F512L.a(port_clear_bits_lib.o)
 .mdebug.abi32  0xa0000214        0x0 c:/program files/microchip/xc32/v2.41/bin/bin/../../lib/gcc/pic32mx/4.8.3/../../../../pic32mx/lib\libmchp_peripheral_32MX795F512L.a(port_set_bits_lib.o)
 .mdebug.abi32  0xa0000214        0x0 c:/program files/microchip/xc32/v2.41/bin/bin/../../lib/gcc/pic32mx/4.8.3/../../../../pic32mx/lib\libmchp_peripheral_32MX795F512L.a(_ports_tbl_libp.o)
 .mdebug.abi32  0xa0000214        0x0 c:/program files/microchip/xc32/v2.41/bin/bin/../../lib/gcc/pic32mx/4.8.3/../../../../pic32mx/lib\libmchp_peripheral_32MX795F512L.a(int_enable_interrupts_lib.o)
 .mdebug.abi32  0xa0000214        0x0 c:/program files/microchip/xc32/v2.41/bin/bin/../../lib/gcc/pic32mx/4.8.3\libgcc.a(_udivdi3.o)
 .mdebug.abi32  0xa0000214        0x0 c:/program files/microchip/xc32/v2.41/bin/bin/../../lib/gcc/pic32mx/4.8.3/../../../../pic32mx/lib\libpic32.a(default-bootstrap-exception-handler.o)
 .mdebug.abi32  0xa0000214        0x0 c:/program files/microchip/xc32/v2.41/bin/bin/../../lib/gcc/pic32mx/4.8.3/../../../../pic32mx/lib\libpic32.a(default-on-reset.o)
 .mdebug.abi32  0xa0000214        0x0 c:/program files/microchip/xc32/v2.41/bin/bin/../../lib/gcc/pic32mx/4.8.3/../../../../pic32mx/lib\libpic32.a(default-on-bootstrap.o)
 .mdebug.abi32  0xa0000214        0x0 c:/program files/microchip/xc32/v2.41/bin/bin/../../lib/gcc/pic32mx/4.8.3/../../../../pic32mx/lib\libpic32.a(defaultinterrupt.o)
 .mdebug.abi32  0xa0000214        0x0 c:/program files/microchip/xc32/v2.41/bin/bin/../../lib/gcc/pic32mx/4.8.3/../../../../pic32mx/lib\libc.a(calloc.o)
 .mdebug.abi32  0xa0000214        0x0 c:/program files/microchip/xc32/v2.41/bin/bin/../../lib/gcc/pic32mx/4.8.3/../../../../pic32mx/lib\libc.a(malloc.o)
 .mdebug.abi32  0xa0000214        0x0 c:/program files/microchip/xc32/v2.41/bin/bin/../../lib/gcc/pic32mx/4.8.3/../../../../pic32mx/lib\libc.a(strncpy.o)
 .mdebug.abi32  0xa0000214        0x0 c:/program files/microchip/xc32/v2.41/bin/bin/../../lib/gcc/pic32mx/4.8.3/../../../../pic32mx/lib\libpic32.a(sbrk.o)
 .mdebug.abi32  0xa0000214        0x0 c:/program files/microchip/xc32/v2.41/bin/bin/../../lib/gcc/pic32mx/4.8.3/../../../../pic32mx/lib\libpic32.a(errno.o)

.mdebug.abiN32
 *(.mdebug.abiN32)

.mdebug.abi64
 *(.mdebug.abi64)

.mdebug.abiO64
 *(.mdebug.abiO64)

.mdebug.eabi32
 *(.mdebug.eabi32)

.mdebug.eabi64
 *(.mdebug.eabi64)

.gcc_compiled_long32
 *(.gcc_compiled_long32)

.gcc_compiled_long64
 *(.gcc_compiled_long64)

.stab
 *(.stab)

.stabstr
 *(.stabstr)

.stab.excl
 *(.stab.excl)

.stab.exclstr
 *(.stab.exclstr)

.stab.index
 *(.stab.index)

.stab.indexstr
 *(.stab.indexstr)

.comment        0x00000000      0x10c
 *(.comment)
 .comment       0x00000000       0x3c build/default/production/_ext/1472/BerkeleyTCPClientDemo.o
                                 0x3d (size before relaxing)
 .comment       0x00000000       0x3d build/default/production/_ext/1472/BerkeleyTCPServerDemo.o
 .comment       0x00000000       0x3d build/default/production/_ext/1472/BerkeleyUDPClientDemo.o
 .comment       0x00000000       0x3d build/default/production/_ext/1472/GenericTCPClient.o
 .comment       0x00000000       0x3d build/default/production/_ext/1472/GenericTCPServer.o
 .comment       0x00000000       0x3d build/default/production/_ext/1472/PingDemo.o
 .comment       0x00000000       0x3d build/default/production/_ext/1472/SMTPDemo.o
 .comment       0x00000000       0x3d build/default/production/_ext/1472/UARTConfig.o
 .comment       0x00000000       0x3d build/default/production/_ext/536368125/ARCFOUR.o
 .comment       0x00000000       0x3d build/default/production/_ext/536368125/ARP.o
 .comment       0x00000000       0x3d build/default/production/_ext/536368125/Announce.o
 .comment       0x00000000       0x3d build/default/production/_ext/536368125/AutoIP.o
 .comment       0x00000000       0x3d build/default/production/_ext/536368125/BerkeleyAPI.o
 .comment       0x00000000       0x3d build/default/production/_ext/536368125/BigInt.o
 .comment       0x00000000       0x3d build/default/production/_ext/536368125/DHCP.o
 .comment       0x00000000       0x3d build/default/production/_ext/536368125/DHCPs.o
 .comment       0x00000000       0x3d build/default/production/_ext/536368125/DNS.o
 .comment       0x00000000       0x3d build/default/production/_ext/536368125/DNSs.o
 .comment       0x00000000       0x3d build/default/production/_ext/536368125/Delay.o
 .comment       0x00000000       0x3d build/default/production/_ext/536368125/DynDNS.o
 .comment       0x00000000       0x3d build/default/production/_ext/536368125/ENC28J60.o
 .comment       0x00000000       0x3d build/default/production/_ext/536368125/ENCX24J600.o
 .comment       0x00000000       0x3d build/default/production/_ext/536368125/ETHPIC32ExtPhy.o
 .comment       0x00000000       0x3d build/default/production/_ext/536368125/ETHPIC32ExtPhySMSC8720.o
 .comment       0x00000000       0x3d build/default/production/_ext/536368125/ETHPIC32IntMac.o
 .comment       0x00000000       0x3d build/default/production/_ext/536368125/FTP.o
 .comment       0x00000000       0x3d build/default/production/_ext/536368125/FileSystem.o
 .comment       0x00000000       0x3d build/default/production/_ext/536368125/HTTP2.o
 .comment       0x00000000       0x3d build/default/production/_ext/536368125/Hashes.o
 .comment       0x00000000       0x3d build/default/production/_ext/536368125/Helpers.o
 .comment       0x00000000       0x3d build/default/production/_ext/536368125/ICMP.o
 .comment       0x00000000       0x3d build/default/production/_ext/536368125/IP.o
 .comment       0x00000000       0x3d build/default/production/_ext/536368125/LCDBlocking.o
 .comment       0x00000000       0x3d build/default/production/_ext/536368125/MPFS2.o
 .comment       0x00000000       0x3d build/default/production/_ext/536368125/NBNS.o
 .comment       0x00000000       0x3d build/default/production/_ext/536368125/RSA.o
 .comment       0x00000000       0x3d build/default/production/_ext/536368125/Random.o
 .comment       0x00000000       0x3d build/default/production/_ext/536368125/Reboot.o
 .comment       0x00000000       0x3d build/default/production/_ext/536368125/SMTP.o
 .comment       0x00000000       0x3d build/default/production/_ext/536368125/SNMP.o
 .comment       0x00000000       0x3d build/default/production/_ext/536368125/SNMPv3.o
 .comment       0x00000000       0x3d build/default/production/_ext/536368125/SNMPv3USM.o
 .comment       0x00000000       0x3d build/default/production/_ext/536368125/SNTP.o
 .comment       0x00000000       0x3d build/default/production/_ext/536368125/SPIEEPROM.o
 .comment       0x00000000       0x3d build/default/production/_ext/536368125/SPIFlash.o
 .comment       0x00000000       0x3d build/default/production/_ext/536368125/SPIRAM.o
 .comment       0x00000000       0x3d build/default/production/_ext/536368125/SSL.o
 .comment       0x00000000       0x3d build/default/production/_ext/536368125/StackTsk.o
 .comment       0x00000000       0x3d build/default/production/_ext/536368125/TCP.o
 .comment       0x00000000       0x3d build/default/production/_ext/536368125/TCPPerformanceTest.o
 .comment       0x00000000       0x3d build/default/production/_ext/536368125/TFTPc.o
 .comment       0x00000000       0x3d build/default/production/_ext/536368125/Telnet.o
 .comment       0x00000000       0x3d build/default/production/_ext/536368125/Tick.o
 .comment       0x00000000       0x3d build/default/production/_ext/536368125/UART.o
 .comment       0x00000000       0x3d build/default/production/_ext/536368125/UART2TCPBridge.o
 .comment       0x00000000       0x3d build/default/production/_ext/536368125/UDP.o
 .comment       0x00000000       0x3d build/default/production/_ext/536368125/UDPPerformanceTest.o
 .comment       0x00000000       0x3d build/default/production/_ext/536368125/ZeroconfHelper.o
 .comment       0x00000000       0x3d build/default/production/_ext/536368125/ZeroconfLinkLocal.o
 .comment       0x00000000       0x3d build/default/production/_ext/536368125/ZeroconfMulticastDNS.o
 .comment       0x00000000       0x3d build/default/production/_ext/1472/CustomHTTPApp.o
 .comment       0x00000000       0x3d build/default/production/_ext/1472/CustomSNMPApp.o
 .comment       0x00000000       0x3d build/default/production/_ext/1472/CustomSSLCert.o
 .comment       0x00000000       0x3d build/default/production/_ext/1472/MainDemo.o
 .comment       0x00000000       0x3d build/default/production/_ext/1472/LEDTCPServer.o
 .comment       0x0000003c       0x3c c:/program files/microchip/xc32/v2.41/bin/bin/../../lib/gcc/pic32mx/4.8.3/../../../../pic32mx/lib\libmchp_peripheral.a(read_core_timer_lib.o)
                                 0x3d (size before relaxing)
 .comment       0x00000000       0x3d c:/program files/microchip/xc32/v2.41/bin/bin/../../lib/gcc/pic32mx/4.8.3/../../../../pic32mx/lib\libmchp_peripheral_32MX795F512L.a(eth_ack_packet_lib.o)
 .comment       0x00000000       0x3d c:/program files/microchip/xc32/v2.41/bin/bin/../../lib/gcc/pic32mx/4.8.3/../../../../pic32mx/lib\libmchp_peripheral_32MX795F512L.a(eth_descriptors_add_lib.o)
 .comment       0x00000000       0x3d c:/program files/microchip/xc32/v2.41/bin/bin/../../lib/gcc/pic32mx/4.8.3/../../../../pic32mx/lib\libmchp_peripheral_32MX795F512L.a(eth_init_lib.o)
 .comment       0x00000000       0x3d c:/program files/microchip/xc32/v2.41/bin/bin/../../lib/gcc/pic32mx/4.8.3/../../../../pic32mx/lib\libmchp_peripheral_32MX795F512L.a(eth_mac_open_lib.o)
 .comment       0x00000000       0x3d c:/program files/microchip/xc32/v2.41/bin/bin/../../lib/gcc/pic32mx/4.8.3/../../../../pic32mx/lib\libmchp_peripheral_32MX795F512L.a(eth_mac_set_address_max_lib.o)
 .comment       0x00000000       0x3d c:/program files/microchip/xc32/v2.41/bin/bin/../../lib/gcc/pic32mx/4.8.3/../../../../pic32mx/lib\libmchp_peripheral_32MX795F512L.a(eth_rx_buffers_append_lib.o)
 .comment       0x00000000       0x3d c:/program files/microchip/xc32/v2.41/bin/bin/../../lib/gcc/pic32mx/4.8.3/../../../../pic32mx/lib\libmchp_peripheral_32MX795F512L.a(eth_rx_filters_lib.o)
 .comment       0x00000000       0x3d c:/program files/microchip/xc32/v2.41/bin/bin/../../lib/gcc/pic32mx/4.8.3/../../../../pic32mx/lib\libmchp_peripheral_32MX795F512L.a(eth_rx_get_packet_lib.o)
 .comment       0x00000000       0x3d c:/program files/microchip/xc32/v2.41/bin/bin/../../lib/gcc/pic32mx/4.8.3/../../../../pic32mx/lib\libmchp_peripheral_32MX795F512L.a(eth_rx_set_buffer_size_lib.o)
 .comment       0x00000000       0x3d c:/program files/microchip/xc32/v2.41/bin/bin/../../lib/gcc/pic32mx/4.8.3/../../../../pic32mx/lib\libmchp_peripheral_32MX795F512L.a(eth_tx_packet_lib.o)
 .comment       0x00000000       0x3d c:/program files/microchip/xc32/v2.41/bin/bin/../../lib/gcc/pic32mx/4.8.3/../../../../pic32mx/lib\libmchp_peripheral_32MX795F512L.a(_eth_append_busy_list_lib.o)
 .comment       0x00000000       0x3d c:/program files/microchip/xc32/v2.41/bin/bin/../../lib/gcc/pic32mx/4.8.3/../../../../pic32mx/lib\libmchp_peripheral_32MX795F512L.a(eth_miim_access.o)
 .comment       0x00000000       0x3d c:/program files/microchip/xc32/v2.41/bin/bin/../../lib/gcc/pic32mx/4.8.3/../../../../pic32mx/lib\libmchp_peripheral_32MX795F512L.a(pcache.o)
 .comment       0x00000000       0x3d c:/program files/microchip/xc32/v2.41/bin/bin/../../lib/gcc/pic32mx/4.8.3/../../../../pic32mx/lib\libmchp_peripheral_32MX795F512L.a(int_disable_interrupts_lib.o)
 .comment       0x00000000       0x3d c:/program files/microchip/xc32/v2.41/bin/bin/../../lib/gcc/pic32mx/4.8.3/../../../../pic32mx/lib\libmchp_peripheral_32MX795F512L.a(int_restore_interrupts_lib.o)
 .comment       0x00000000       0x3d c:/program files/microchip/xc32/v2.41/bin/bin/../../lib/gcc/pic32mx/4.8.3/../../../../pic32mx/lib\libmchp_peripheral_32MX795F512L.a(int_enable_mv_int_lib.o)
 .comment       0x00000000       0x3d c:/program files/microchip/xc32/v2.41/bin/bin/../../lib/gcc/pic32mx/4.8.3/../../../../pic32mx/lib\libmchp_peripheral_32MX795F512L.a(int_tbl_lib.o)
 .comment       0x00000000       0x3d c:/program files/microchip/xc32/v2.41/bin/bin/../../lib/gcc/pic32mx/4.8.3/../../../../pic32mx/lib\libmchp_peripheral_32MX795F512L.a(port_set_pins_digital_in_lib.o)
 .comment       0x00000000       0x3d c:/program files/microchip/xc32/v2.41/bin/bin/../../lib/gcc/pic32mx/4.8.3/../../../../pic32mx/lib\libmchp_peripheral_32MX795F512L.a(port_set_pins_digital_out_lib.o)
 .comment       0x00000000       0x3d c:/program files/microchip/xc32/v2.41/bin/bin/../../lib/gcc/pic32mx/4.8.3/../../../../pic32mx/lib\libmchp_peripheral_32MX795F512L.a(port_clear_bits_lib.o)
 .comment       0x00000000       0x3d c:/program files/microchip/xc32/v2.41/bin/bin/../../lib/gcc/pic32mx/4.8.3/../../../../pic32mx/lib\libmchp_peripheral_32MX795F512L.a(port_set_bits_lib.o)
 .comment       0x00000000       0x3d c:/program files/microchip/xc32/v2.41/bin/bin/../../lib/gcc/pic32mx/4.8.3/../../../../pic32mx/lib\libmchp_peripheral_32MX795F512L.a(_ports_tbl_libp.o)
 .comment       0x00000000       0x3d c:/program files/microchip/xc32/v2.41/bin/bin/../../lib/gcc/pic32mx/4.8.3/../../../../pic32mx/lib\libmchp_peripheral_32MX795F512L.a(int_enable_interrupts_lib.o)
 .comment       0x00000000       0x3d c:/program files/microchip/xc32/v2.41/bin/bin/../../lib/gcc/pic32mx/4.8.3\libgcc.a(_udivdi3.o)
 .comment       0x00000078       0x18 c:/program files/microchip/xc32/v2.41/bin/bin/../../lib/gcc/pic32mx/4.8.3/../../../../pic32mx/lib\libpic32.a(memcmp.o)
                                 0x19 (size before relaxing)
 .comment       0x00000090       0x18 c:/program files/microchip/xc32/v2.41/bin/bin/../../lib/gcc/pic32mx/4.8.3/../../../../pic32mx/lib\libpic32.a(memset.o)
                                 0x19 (size before relaxing)
 .comment       0x000000a8       0x19 c:/program files/microchip/xc32/v2.41/bin/bin/../../lib/gcc/pic32mx/4.8.3/../../../../pic32mx/lib\libpic32.a(strlen.o)
                                 0x1a (size before relaxing)
 .comment       0x00000000       0x3d c:/program files/microchip/xc32/v2.41/bin/bin/../../lib/gcc/pic32mx/4.8.3/../../../../pic32mx/lib\libpic32.a(default-bootstrap-exception-handler.o)
 .comment       0x00000000       0x3d c:/program files/microchip/xc32/v2.41/bin/bin/../../lib/gcc/pic32mx/4.8.3/../../../../pic32mx/lib\libpic32.a(default-on-reset.o)
 .comment       0x00000000       0x3d c:/program files/microchip/xc32/v2.41/bin/bin/../../lib/gcc/pic32mx/4.8.3/../../../../pic32mx/lib\libpic32.a(default-on-bootstrap.o)
 .comment       0x00000000       0x3d c:/program files/microchip/xc32/v2.41/bin/bin/../../lib/gcc/pic32mx/4.8.3/../../../../pic32mx/lib\libpic32.a(defaultinterrupt.o)
 .comment       0x00000000       0x3d c:/program files/microchip/xc32/v2.41/bin/bin/../../lib/gcc/pic32mx/4.8.3/../../../../pic32mx/lib\libc.a(calloc.o)
 .comment       0x00000000       0x3d c:/program files/microchip/xc32/v2.41/bin/bin/../../lib/gcc/pic32mx/4.8.3/../../../../pic32mx/lib\libc.a(malloc.o)
 .comment       0x00000000       0x3d c:/program files/microchip/xc32/v2.41/bin/bin/../../lib/gcc/pic32mx/4.8.3/../../../../pic32mx/lib\libc.a(strncpy.o)
 .comment       0x000000c1       0x4b c:/program files/microchip/xc32/v2.41/bin/bin/../../lib/gcc/pic32mx/4.8.3/../../../../pic32mx/lib\libpic32.a(sbrk.o)
                                 0x88 (size before relaxing)
 .comment       0x00000000       0x3d c:/program files/microchip/xc32/v2.41/bin/bin/../../lib/gcc/pic32mx/4.8.3/../../../../pic32mx/lib\libpic32.a(errno.o)

.debug
 *(.debug)

.line
 *(.line)

.debug_srcinfo
 *(.debug_srcinfo)

.debug_sfnames
 *(.debug_sfnames)

.debug_aranges  0x00000000      0xbf0
 *(.debug_aranges)
 .debug_aranges
                0x00000000       0x18 build/default/production/_ext/1472/BerkeleyTCPClientDemo.o
 .debug_aranges
                0x00000018       0x18 build/default/production/_ext/1472/BerkeleyTCPServerDemo.o
 .debug_aranges
                0x00000030       0x18 build/default/production/_ext/1472/BerkeleyUDPClientDemo.o
 .debug_aranges
                0x00000048       0x20 build/default/production/_ext/1472/GenericTCPClient.o
 .debug_aranges
                0x00000068       0x20 build/default/production/_ext/1472/GenericTCPServer.o
 .debug_aranges
                0x00000088       0x18 build/default/production/_ext/1472/PingDemo.o
 .debug_aranges
                0x000000a0       0x18 build/default/production/_ext/1472/SMTPDemo.o
 .debug_aranges
                0x000000b8       0x18 build/default/production/_ext/1472/UARTConfig.o
 .debug_aranges
                0x000000d0       0x18 build/default/production/_ext/536368125/ARCFOUR.o
 .debug_aranges
                0x000000e8       0x20 build/default/production/_ext/536368125/ARP.o
 .debug_aranges
                0x00000108       0x20 build/default/production/_ext/536368125/Announce.o
 .debug_aranges
                0x00000128       0x18 build/default/production/_ext/536368125/AutoIP.o
 .debug_aranges
                0x00000140       0x18 build/default/production/_ext/536368125/BerkeleyAPI.o
 .debug_aranges
                0x00000158       0x18 build/default/production/_ext/536368125/BigInt.o
 .debug_aranges
                0x00000170       0x18 build/default/production/_ext/536368125/DHCP.o
 .debug_aranges
                0x00000188       0x20 build/default/production/_ext/536368125/DHCPs.o
 .debug_aranges
                0x000001a8       0x20 build/default/production/_ext/536368125/DNS.o
 .debug_aranges
                0x000001c8       0x18 build/default/production/_ext/536368125/DNSs.o
 .debug_aranges
                0x000001e0       0x20 build/default/production/_ext/536368125/Delay.o
 .debug_aranges
                0x00000200       0x18 build/default/production/_ext/536368125/DynDNS.o
 .debug_aranges
                0x00000218       0x18 build/default/production/_ext/536368125/ENC28J60.o
 .debug_aranges
                0x00000230       0x18 build/default/production/_ext/536368125/ENCX24J600.o
 .debug_aranges
                0x00000248       0x20 build/default/production/_ext/536368125/ETHPIC32ExtPhy.o
 .debug_aranges
                0x00000268       0x20 build/default/production/_ext/536368125/ETHPIC32ExtPhySMSC8720.o
 .debug_aranges
                0x00000288       0x20 build/default/production/_ext/536368125/ETHPIC32IntMac.o
 .debug_aranges
                0x000002a8       0x18 build/default/production/_ext/536368125/FTP.o
 .debug_aranges
                0x000002c0       0x18 build/default/production/_ext/536368125/FileSystem.o
 .debug_aranges
                0x000002d8       0x18 build/default/production/_ext/536368125/HTTP2.o
 .debug_aranges
                0x000002f0       0x18 build/default/production/_ext/536368125/Hashes.o
 .debug_aranges
                0x00000308       0x20 build/default/production/_ext/536368125/Helpers.o
 .debug_aranges
                0x00000328       0x20 build/default/production/_ext/536368125/ICMP.o
 .debug_aranges
                0x00000348       0x20 build/default/production/_ext/536368125/IP.o
 .debug_aranges
                0x00000368       0x18 build/default/production/_ext/536368125/LCDBlocking.o
 .debug_aranges
                0x00000380       0x18 build/default/production/_ext/536368125/MPFS2.o
 .debug_aranges
                0x00000398       0x18 build/default/production/_ext/536368125/NBNS.o
 .debug_aranges
                0x000003b0       0x18 build/default/production/_ext/536368125/RSA.o
 .debug_aranges
                0x000003c8       0x18 build/default/production/_ext/536368125/Random.o
 .debug_aranges
                0x000003e0       0x18 build/default/production/_ext/536368125/Reboot.o
 .debug_aranges
                0x000003f8       0x18 build/default/production/_ext/536368125/SMTP.o
 .debug_aranges
                0x00000410       0x18 build/default/production/_ext/536368125/SNMP.o
 .debug_aranges
                0x00000428       0x18 build/default/production/_ext/536368125/SNMPv3.o
 .debug_aranges
                0x00000440       0x18 build/default/production/_ext/536368125/SNMPv3USM.o
 .debug_aranges
                0x00000458       0x18 build/default/production/_ext/536368125/SNTP.o
 .debug_aranges
                0x00000470       0x18 build/default/production/_ext/536368125/SPIEEPROM.o
 .debug_aranges
                0x00000488       0x18 build/default/production/_ext/536368125/SPIFlash.o
 .debug_aranges
                0x000004a0       0x18 build/default/production/_ext/536368125/SPIRAM.o
 .debug_aranges
                0x000004b8       0x18 build/default/production/_ext/536368125/SSL.o
 .debug_aranges
                0x000004d0       0x20 build/default/production/_ext/536368125/StackTsk.o
 .debug_aranges
                0x000004f0       0x20 build/default/production/_ext/536368125/TCP.o
 .debug_aranges
                0x00000510       0x18 build/default/production/_ext/536368125/TCPPerformanceTest.o
 .debug_aranges
                0x00000528       0x18 build/default/production/_ext/536368125/TFTPc.o
 .debug_aranges
                0x00000540       0x20 build/default/production/_ext/536368125/Telnet.o
 .debug_aranges
                0x00000560       0x20 build/default/production/_ext/536368125/Tick.o
 .debug_aranges
                0x00000580       0x18 build/default/production/_ext/536368125/UART.o
 .debug_aranges
                0x00000598       0x18 build/default/production/_ext/536368125/UART2TCPBridge.o
 .debug_aranges
                0x000005b0       0x20 build/default/production/_ext/536368125/UDP.o
 .debug_aranges
                0x000005d0       0x18 build/default/production/_ext/536368125/UDPPerformanceTest.o
 .debug_aranges
                0x000005e8       0x18 build/default/production/_ext/536368125/ZeroconfHelper.o
 .debug_aranges
                0x00000600       0x18 build/default/production/_ext/536368125/ZeroconfLinkLocal.o
 .debug_aranges
                0x00000618       0x18 build/default/production/_ext/536368125/ZeroconfMulticastDNS.o
 .debug_aranges
                0x00000630       0x18 build/default/production/_ext/1472/CustomHTTPApp.o
 .debug_aranges
                0x00000648       0x18 build/default/production/_ext/1472/CustomSNMPApp.o
 .debug_aranges
                0x00000660       0x18 build/default/production/_ext/1472/CustomSSLCert.o
 .debug_aranges
                0x00000678       0x20 build/default/production/_ext/1472/MainDemo.o
 .debug_aranges
                0x00000698       0x20 build/default/production/_ext/1472/LEDTCPServer.o
 .debug_aranges
                0x000006b8       0x20 c:/program files/microchip/xc32/v2.41/bin/bin/../../lib/gcc/pic32mx/4.8.3/../../../../pic32mx/lib\libmchp_peripheral.a(read_core_timer_lib.o)
 .debug_aranges
                0x000006d8       0x48 c:/program files/microchip/xc32/v2.41/bin/bin/../../lib/gcc/pic32mx/4.8.3/../../../../pic32mx/lib\libmchp_peripheral_32MX795F512L.a(eth_ack_packet_lib.o)
 .debug_aranges
                0x00000720       0x28 c:/program files/microchip/xc32/v2.41/bin/bin/../../lib/gcc/pic32mx/4.8.3/../../../../pic32mx/lib\libmchp_peripheral_32MX795F512L.a(eth_descriptors_add_lib.o)
 .debug_aranges
                0x00000748       0x20 c:/program files/microchip/xc32/v2.41/bin/bin/../../lib/gcc/pic32mx/4.8.3/../../../../pic32mx/lib\libmchp_peripheral_32MX795F512L.a(eth_init_lib.o)
 .debug_aranges
                0x00000768       0x20 c:/program files/microchip/xc32/v2.41/bin/bin/../../lib/gcc/pic32mx/4.8.3/../../../../pic32mx/lib\libmchp_peripheral_32MX795F512L.a(eth_mac_open_lib.o)
 .debug_aranges
                0x00000788       0x30 c:/program files/microchip/xc32/v2.41/bin/bin/../../lib/gcc/pic32mx/4.8.3/../../../../pic32mx/lib\libmchp_peripheral_32MX795F512L.a(eth_mac_set_address_max_lib.o)
 .debug_aranges
                0x000007b8       0x20 c:/program files/microchip/xc32/v2.41/bin/bin/../../lib/gcc/pic32mx/4.8.3/../../../../pic32mx/lib\libmchp_peripheral_32MX795F512L.a(eth_rx_buffers_append_lib.o)
 .debug_aranges
                0x000007d8       0x48 c:/program files/microchip/xc32/v2.41/bin/bin/../../lib/gcc/pic32mx/4.8.3/../../../../pic32mx/lib\libmchp_peripheral_32MX795F512L.a(eth_rx_filters_lib.o)
 .debug_aranges
                0x00000820       0x28 c:/program files/microchip/xc32/v2.41/bin/bin/../../lib/gcc/pic32mx/4.8.3/../../../../pic32mx/lib\libmchp_peripheral_32MX795F512L.a(eth_rx_get_packet_lib.o)
 .debug_aranges
                0x00000848       0x20 c:/program files/microchip/xc32/v2.41/bin/bin/../../lib/gcc/pic32mx/4.8.3/../../../../pic32mx/lib\libmchp_peripheral_32MX795F512L.a(eth_rx_set_buffer_size_lib.o)
 .debug_aranges
                0x00000868       0x48 c:/program files/microchip/xc32/v2.41/bin/bin/../../lib/gcc/pic32mx/4.8.3/../../../../pic32mx/lib\libmchp_peripheral_32MX795F512L.a(eth_tx_packet_lib.o)
 .debug_aranges
                0x000008b0       0x20 c:/program files/microchip/xc32/v2.41/bin/bin/../../lib/gcc/pic32mx/4.8.3/../../../../pic32mx/lib\libmchp_peripheral_32MX795F512L.a(_eth_append_busy_list_lib.o)
 .debug_aranges
                0x000008d0       0x48 c:/program files/microchip/xc32/v2.41/bin/bin/../../lib/gcc/pic32mx/4.8.3/../../../../pic32mx/lib\libmchp_peripheral_32MX795F512L.a(eth_miim_access.o)
 .debug_aranges
                0x00000918       0x28 c:/program files/microchip/xc32/v2.41/bin/bin/../../lib/gcc/pic32mx/4.8.3/../../../../pic32mx/lib\libmchp_peripheral_32MX795F512L.a(pcache.o)
 .debug_aranges
                0x00000940       0x20 c:/program files/microchip/xc32/v2.41/bin/bin/../../lib/gcc/pic32mx/4.8.3/../../../../pic32mx/lib\libmchp_peripheral_32MX795F512L.a(int_disable_interrupts_lib.o)
 .debug_aranges
                0x00000960       0x20 c:/program files/microchip/xc32/v2.41/bin/bin/../../lib/gcc/pic32mx/4.8.3/../../../../pic32mx/lib\libmchp_peripheral_32MX795F512L.a(int_restore_interrupts_lib.o)
 .debug_aranges
                0x00000980       0x20 c:/program files/microchip/xc32/v2.41/bin/bin/../../lib/gcc/pic32mx/4.8.3/../../../../pic32mx/lib\libmchp_peripheral_32MX795F512L.a(int_enable_mv_int_lib.o)
 .debug_aranges
                0x000009a0       0x60 c:/program files/microchip/xc32/v2.41/bin/bin/../../lib/gcc/pic32mx/4.8.3/../../../../pic32mx/lib\libmchp_peripheral_32MX795F512L.a(int_tbl_lib.o)
 .debug_aranges
                0x00000a00       0x20 c:/program files/microchip/xc32/v2.41/bin/bin/../../lib/gcc/pic32mx/4.8.3/../../../../pic32mx/lib\libmchp_peripheral_32MX795F512L.a(port_set_pins_digital_in_lib.o)
 .debug_aranges
                0x00000a20       0x20 c:/program files/microchip/xc32/v2.41/bin/bin/../../lib/gcc/pic32mx/4.8.3/../../../../pic32mx/lib\libmchp_peripheral_32MX795F512L.a(port_set_pins_digital_out_lib.o)
 .debug_aranges
                0x00000a40       0x20 c:/program files/microchip/xc32/v2.41/bin/bin/../../lib/gcc/pic32mx/4.8.3/../../../../pic32mx/lib\libmchp_peripheral_32MX795F512L.a(port_clear_bits_lib.o)
 .debug_aranges
                0x00000a60       0x20 c:/program files/microchip/xc32/v2.41/bin/bin/../../lib/gcc/pic32mx/4.8.3/../../../../pic32mx/lib\libmchp_peripheral_32MX795F512L.a(port_set_bits_lib.o)
 .debug_aranges
                0x00000a80       0x20 c:/program files/microchip/xc32/v2.41/bin/bin/../../lib/gcc/pic32mx/4.8.3/../../../../pic32mx/lib\libmchp_peripheral_32MX795F512L.a(int_enable_interrupts_lib.o)
 .debug_aranges
                0x00000aa0       0x20 c:/program files/microchip/xc32/v2.41/bin/bin/../../lib/gcc/pic32mx/4.8.3\libgcc.a(_udivdi3.o)
 .debug_aranges
                0x00000ac0       0x20 c:/program files/microchip/xc32/v2.41/bin/bin/../../lib/gcc/pic32mx/4.8.3/../../../../pic32mx/lib\libpic32.a(default-bootstrap-exception-handler.o)
 .debug_aranges
                0x00000ae0       0x20 c:/program files/microchip/xc32/v2.41/bin/bin/../../lib/gcc/pic32mx/4.8.3/../../../../pic32mx/lib\libpic32.a(default-on-reset.o)
 .debug_aranges
                0x00000b00       0x20 c:/program files/microchip/xc32/v2.41/bin/bin/../../lib/gcc/pic32mx/4.8.3/../../../../pic32mx/lib\libpic32.a(default-on-bootstrap.o)
 .debug_aranges
                0x00000b20       0x20 c:/program files/microchip/xc32/v2.41/bin/bin/../../lib/gcc/pic32mx/4.8.3/../../../../pic32mx/lib\libpic32.a(defaultinterrupt.o)
 .debug_aranges
                0x00000b40       0x20 c:/program files/microchip/xc32/v2.41/bin/bin/../../lib/gcc/pic32mx/4.8.3/../../../../pic32mx/lib\libc.a(calloc.o)
 .debug_aranges
                0x00000b60       0x30 c:/program files/microchip/xc32/v2.41/bin/bin/../../lib/gcc/pic32mx/4.8.3/../../../../pic32mx/lib\libc.a(malloc.o)
 .debug_aranges
                0x00000b90       0x20 c:/program files/microchip/xc32/v2.41/bin/bin/../../lib/gcc/pic32mx/4.8.3/../../../../pic32mx/lib\libc.a(strncpy.o)
 .debug_aranges
                0x00000bb0       0x40 c:/program files/microchip/xc32/v2.41/bin/bin/../../lib/gcc/pic32mx/4.8.3/../../../../pic32mx/lib\libpic32.a(sbrk.o)

.debug_pubnames
 *(.debug_pubnames)

.debug_info     0x00000000    0x51a28
 *(.debug_info .gnu.linkonce.wi.*)
 .debug_info    0x00000000      0xfd5 build/default/production/_ext/1472/BerkeleyTCPClientDemo.o
 .debug_info    0x00000fd5      0xfd5 build/default/production/_ext/1472/BerkeleyTCPServerDemo.o
 .debug_info    0x00001faa      0xfd5 build/default/production/_ext/1472/BerkeleyUDPClientDemo.o
 .debug_info    0x00002f7f     0x12f2 build/default/production/_ext/1472/GenericTCPClient.o
 .debug_info    0x00004271     0x1120 build/default/production/_ext/1472/GenericTCPServer.o
 .debug_info    0x00005391      0xfc8 build/default/production/_ext/1472/PingDemo.o
 .debug_info    0x00006359      0xfc8 build/default/production/_ext/1472/SMTPDemo.o
 .debug_info    0x00007321      0xfca build/default/production/_ext/1472/UARTConfig.o
 .debug_info    0x000082eb      0xfe3 build/default/production/_ext/536368125/ARCFOUR.o
 .debug_info    0x000092ce     0x1a14 build/default/production/_ext/536368125/ARP.o
 .debug_info    0x0000ace2     0x19ce build/default/production/_ext/536368125/Announce.o
 .debug_info    0x0000c6b0      0xfe2 build/default/production/_ext/536368125/AutoIP.o
 .debug_info    0x0000d692      0xfe7 build/default/production/_ext/536368125/BerkeleyAPI.o
 .debug_info    0x0000e679      0xfe2 build/default/production/_ext/536368125/BigInt.o
 .debug_info    0x0000f65b      0xfe0 build/default/production/_ext/536368125/DHCP.o
 .debug_info    0x0001063b     0x1c28 build/default/production/_ext/536368125/DHCPs.o
 .debug_info    0x00012263     0x1c34 build/default/production/_ext/536368125/DNS.o
 .debug_info    0x00013e97      0xfe0 build/default/production/_ext/536368125/DNSs.o
 .debug_info    0x00014e77     0x1080 build/default/production/_ext/536368125/Delay.o
 .debug_info    0x00015ef7      0xfe2 build/default/production/_ext/536368125/DynDNS.o
 .debug_info    0x00016ed9      0xfe4 build/default/production/_ext/536368125/ENC28J60.o
 .debug_info    0x00017ebd      0xfe6 build/default/production/_ext/536368125/ENCX24J600.o
 .debug_info    0x00018ea3     0x25a2 build/default/production/_ext/536368125/ETHPIC32ExtPhy.o
 .debug_info    0x0001b445     0x14bc build/default/production/_ext/536368125/ETHPIC32ExtPhySMSC8720.o
 .debug_info    0x0001c901     0x2ba2 build/default/production/_ext/536368125/ETHPIC32IntMac.o
 .debug_info    0x0001f4a3      0xfdf build/default/production/_ext/536368125/FTP.o
 .debug_info    0x00020482      0xfe6 build/default/production/_ext/536368125/FileSystem.o
 .debug_info    0x00021468      0xfe1 build/default/production/_ext/536368125/HTTP2.o
 .debug_info    0x00022449      0xfe2 build/default/production/_ext/536368125/Hashes.o
 .debug_info    0x0002342b     0x22b5 build/default/production/_ext/536368125/Helpers.o
 .debug_info    0x000256e0     0x15df build/default/production/_ext/536368125/ICMP.o
 .debug_info    0x00026cbf     0x19c3 build/default/production/_ext/536368125/IP.o
 .debug_info    0x00028682      0xfe7 build/default/production/_ext/536368125/LCDBlocking.o
 .debug_info    0x00029669      0xfe1 build/default/production/_ext/536368125/MPFS2.o
 .debug_info    0x0002a64a      0xfe0 build/default/production/_ext/536368125/NBNS.o
 .debug_info    0x0002b62a      0xfdf build/default/production/_ext/536368125/RSA.o
 .debug_info    0x0002c609      0xfe2 build/default/production/_ext/536368125/Random.o
 .debug_info    0x0002d5eb      0xfe2 build/default/production/_ext/536368125/Reboot.o
 .debug_info    0x0002e5cd      0xfe0 build/default/production/_ext/536368125/SMTP.o
 .debug_info    0x0002f5ad      0xfe0 build/default/production/_ext/536368125/SNMP.o
 .debug_info    0x0003058d      0xfe2 build/default/production/_ext/536368125/SNMPv3.o
 .debug_info    0x0003156f      0xfe5 build/default/production/_ext/536368125/SNMPv3USM.o
 .debug_info    0x00032554      0xfe0 build/default/production/_ext/536368125/SNTP.o
 .debug_info    0x00033534      0xfe5 build/default/production/_ext/536368125/SPIEEPROM.o
 .debug_info    0x00034519      0xfe4 build/default/production/_ext/536368125/SPIFlash.o
 .debug_info    0x000354fd      0xfe2 build/default/production/_ext/536368125/SPIRAM.o
 .debug_info    0x000364df      0xfdf build/default/production/_ext/536368125/SSL.o
 .debug_info    0x000374be     0x1887 build/default/production/_ext/536368125/StackTsk.o
 .debug_info    0x00038d45     0x309b build/default/production/_ext/536368125/TCP.o
 .debug_info    0x0003bde0      0xfee build/default/production/_ext/536368125/TCPPerformanceTest.o
 .debug_info    0x0003cdce      0xfe1 build/default/production/_ext/536368125/TFTPc.o
 .debug_info    0x0003ddaf     0x1716 build/default/production/_ext/536368125/Telnet.o
 .debug_info    0x0003f4c5     0x18f9 build/default/production/_ext/536368125/Tick.o
 .debug_info    0x00040dbe      0xfe0 build/default/production/_ext/536368125/UART.o
 .debug_info    0x00041d9e      0xfea build/default/production/_ext/536368125/UART2TCPBridge.o
 .debug_info    0x00042d88     0x2090 build/default/production/_ext/536368125/UDP.o
 .debug_info    0x00044e18      0xfee build/default/production/_ext/536368125/UDPPerformanceTest.o
 .debug_info    0x00045e06      0xfea build/default/production/_ext/536368125/ZeroconfHelper.o
 .debug_info    0x00046df0      0xfed build/default/production/_ext/536368125/ZeroconfLinkLocal.o
 .debug_info    0x00047ddd      0xff0 build/default/production/_ext/536368125/ZeroconfMulticastDNS.o
 .debug_info    0x00048dcd      0xfcd build/default/production/_ext/1472/CustomHTTPApp.o
 .debug_info    0x00049d9a      0xfcd build/default/production/_ext/1472/CustomSNMPApp.o
 .debug_info    0x0004ad67      0xfcd build/default/production/_ext/1472/CustomSSLCert.o
 .debug_info    0x0004bd34     0x2500 build/default/production/_ext/1472/MainDemo.o
 .debug_info    0x0004e234     0x14f7 build/default/production/_ext/1472/LEDTCPServer.o
 .debug_info    0x0004f72b       0xa8 c:/program files/microchip/xc32/v2.41/bin/bin/../../lib/gcc/pic32mx/4.8.3/../../../../pic32mx/lib\libmchp_peripheral.a(read_core_timer_lib.o)
 .debug_info    0x0004f7d3      0x16e c:/program files/microchip/xc32/v2.41/bin/bin/../../lib/gcc/pic32mx/4.8.3/../../../../pic32mx/lib\libmchp_peripheral_32MX795F512L.a(eth_ack_packet_lib.o)
 .debug_info    0x0004f941       0xf1 c:/program files/microchip/xc32/v2.41/bin/bin/../../lib/gcc/pic32mx/4.8.3/../../../../pic32mx/lib\libmchp_peripheral_32MX795F512L.a(eth_descriptors_add_lib.o)
 .debug_info    0x0004fa32       0xbc c:/program files/microchip/xc32/v2.41/bin/bin/../../lib/gcc/pic32mx/4.8.3/../../../../pic32mx/lib\libmchp_peripheral_32MX795F512L.a(eth_init_lib.o)
 .debug_info    0x0004faee       0xa0 c:/program files/microchip/xc32/v2.41/bin/bin/../../lib/gcc/pic32mx/4.8.3/../../../../pic32mx/lib\libmchp_peripheral_32MX795F512L.a(eth_mac_open_lib.o)
 .debug_info    0x0004fb8e       0xf2 c:/program files/microchip/xc32/v2.41/bin/bin/../../lib/gcc/pic32mx/4.8.3/../../../../pic32mx/lib\libmchp_peripheral_32MX795F512L.a(eth_mac_set_address_max_lib.o)
 .debug_info    0x0004fc80       0xe4 c:/program files/microchip/xc32/v2.41/bin/bin/../../lib/gcc/pic32mx/4.8.3/../../../../pic32mx/lib\libmchp_peripheral_32MX795F512L.a(eth_rx_buffers_append_lib.o)
 .debug_info    0x0004fd64      0x14a c:/program files/microchip/xc32/v2.41/bin/bin/../../lib/gcc/pic32mx/4.8.3/../../../../pic32mx/lib\libmchp_peripheral_32MX795F512L.a(eth_rx_filters_lib.o)
 .debug_info    0x0004feae       0xc7 c:/program files/microchip/xc32/v2.41/bin/bin/../../lib/gcc/pic32mx/4.8.3/../../../../pic32mx/lib\libmchp_peripheral_32MX795F512L.a(eth_rx_get_packet_lib.o)
 .debug_info    0x0004ff75       0xb2 c:/program files/microchip/xc32/v2.41/bin/bin/../../lib/gcc/pic32mx/4.8.3/../../../../pic32mx/lib\libmchp_peripheral_32MX795F512L.a(eth_rx_set_buffer_size_lib.o)
 .debug_info    0x00050027      0x185 c:/program files/microchip/xc32/v2.41/bin/bin/../../lib/gcc/pic32mx/4.8.3/../../../../pic32mx/lib\libmchp_peripheral_32MX795F512L.a(eth_tx_packet_lib.o)
 .debug_info    0x000501ac       0xd2 c:/program files/microchip/xc32/v2.41/bin/bin/../../lib/gcc/pic32mx/4.8.3/../../../../pic32mx/lib\libmchp_peripheral_32MX795F512L.a(_eth_append_busy_list_lib.o)
 .debug_info    0x0005027e      0x146 c:/program files/microchip/xc32/v2.41/bin/bin/../../lib/gcc/pic32mx/4.8.3/../../../../pic32mx/lib\libmchp_peripheral_32MX795F512L.a(eth_miim_access.o)
 .debug_info    0x000503c4       0xbe c:/program files/microchip/xc32/v2.41/bin/bin/../../lib/gcc/pic32mx/4.8.3/../../../../pic32mx/lib\libmchp_peripheral_32MX795F512L.a(pcache.o)
 .debug_info    0x00050482       0xb4 c:/program files/microchip/xc32/v2.41/bin/bin/../../lib/gcc/pic32mx/4.8.3/../../../../pic32mx/lib\libmchp_peripheral_32MX795F512L.a(int_disable_interrupts_lib.o)
 .debug_info    0x00050536       0xb4 c:/program files/microchip/xc32/v2.41/bin/bin/../../lib/gcc/pic32mx/4.8.3/../../../../pic32mx/lib\libmchp_peripheral_32MX795F512L.a(int_restore_interrupts_lib.o)
 .debug_info    0x000505ea       0xba c:/program files/microchip/xc32/v2.41/bin/bin/../../lib/gcc/pic32mx/4.8.3/../../../../pic32mx/lib\libmchp_peripheral_32MX795F512L.a(int_enable_mv_int_lib.o)
 .debug_info    0x000506a4      0x19c c:/program files/microchip/xc32/v2.41/bin/bin/../../lib/gcc/pic32mx/4.8.3/../../../../pic32mx/lib\libmchp_peripheral_32MX795F512L.a(int_tbl_lib.o)
 .debug_info    0x00050840       0xb8 c:/program files/microchip/xc32/v2.41/bin/bin/../../lib/gcc/pic32mx/4.8.3/../../../../pic32mx/lib\libmchp_peripheral_32MX795F512L.a(port_set_pins_digital_in_lib.o)
 .debug_info    0x000508f8       0xba c:/program files/microchip/xc32/v2.41/bin/bin/../../lib/gcc/pic32mx/4.8.3/../../../../pic32mx/lib\libmchp_peripheral_32MX795F512L.a(port_set_pins_digital_out_lib.o)
 .debug_info    0x000509b2       0xa8 c:/program files/microchip/xc32/v2.41/bin/bin/../../lib/gcc/pic32mx/4.8.3/../../../../pic32mx/lib\libmchp_peripheral_32MX795F512L.a(port_clear_bits_lib.o)
 .debug_info    0x00050a5a       0xa4 c:/program files/microchip/xc32/v2.41/bin/bin/../../lib/gcc/pic32mx/4.8.3/../../../../pic32mx/lib\libmchp_peripheral_32MX795F512L.a(port_set_bits_lib.o)
 .debug_info    0x00050afe       0xb2 c:/program files/microchip/xc32/v2.41/bin/bin/../../lib/gcc/pic32mx/4.8.3/../../../../pic32mx/lib\libmchp_peripheral_32MX795F512L.a(int_enable_interrupts_lib.o)
 .debug_info    0x00050bb0      0x74b c:/program files/microchip/xc32/v2.41/bin/bin/../../lib/gcc/pic32mx/4.8.3\libgcc.a(_udivdi3.o)
 .debug_info    0x000512fb       0xf4 c:/program files/microchip/xc32/v2.41/bin/bin/../../lib/gcc/pic32mx/4.8.3/../../../../pic32mx/lib\libpic32.a(default-bootstrap-exception-handler.o)
 .debug_info    0x000513ef       0xcd c:/program files/microchip/xc32/v2.41/bin/bin/../../lib/gcc/pic32mx/4.8.3/../../../../pic32mx/lib\libpic32.a(default-on-reset.o)
 .debug_info    0x000514bc       0xd5 c:/program files/microchip/xc32/v2.41/bin/bin/../../lib/gcc/pic32mx/4.8.3/../../../../pic32mx/lib\libpic32.a(default-on-bootstrap.o)
 .debug_info    0x00051591       0xe7 c:/program files/microchip/xc32/v2.41/bin/bin/../../lib/gcc/pic32mx/4.8.3/../../../../pic32mx/lib\libpic32.a(defaultinterrupt.o)
 .debug_info    0x00051678       0xc4 c:/program files/microchip/xc32/v2.41/bin/bin/../../lib/gcc/pic32mx/4.8.3/../../../../pic32mx/lib\libc.a(calloc.o)
 .debug_info    0x0005173c       0xf5 c:/program files/microchip/xc32/v2.41/bin/bin/../../lib/gcc/pic32mx/4.8.3/../../../../pic32mx/lib\libc.a(malloc.o)
 .debug_info    0x00051831       0xc6 c:/program files/microchip/xc32/v2.41/bin/bin/../../lib/gcc/pic32mx/4.8.3/../../../../pic32mx/lib\libc.a(strncpy.o)
 .debug_info    0x000518f7      0x131 c:/program files/microchip/xc32/v2.41/bin/bin/../../lib/gcc/pic32mx/4.8.3/../../../../pic32mx/lib\libpic32.a(sbrk.o)

.debug_abbrev   0x00000000     0x62a8
 *(.debug_abbrev)
 .debug_abbrev  0x00000000      0x118 build/default/production/_ext/1472/BerkeleyTCPClientDemo.o
 .debug_abbrev  0x00000118      0x118 build/default/production/_ext/1472/BerkeleyTCPServerDemo.o
 .debug_abbrev  0x00000230      0x118 build/default/production/_ext/1472/BerkeleyUDPClientDemo.o
 .debug_abbrev  0x00000348      0x166 build/default/production/_ext/1472/GenericTCPClient.o
 .debug_abbrev  0x000004ae      0x166 build/default/production/_ext/1472/GenericTCPServer.o
 .debug_abbrev  0x00000614      0x118 build/default/production/_ext/1472/PingDemo.o
 .debug_abbrev  0x0000072c      0x118 build/default/production/_ext/1472/SMTPDemo.o
 .debug_abbrev  0x00000844      0x118 build/default/production/_ext/1472/UARTConfig.o
 .debug_abbrev  0x0000095c      0x118 build/default/production/_ext/536368125/ARCFOUR.o
 .debug_abbrev  0x00000a74      0x253 build/default/production/_ext/536368125/ARP.o
 .debug_abbrev  0x00000cc7      0x1c9 build/default/production/_ext/536368125/Announce.o
 .debug_abbrev  0x00000e90      0x118 build/default/production/_ext/536368125/AutoIP.o
 .debug_abbrev  0x00000fa8      0x118 build/default/production/_ext/536368125/BerkeleyAPI.o
 .debug_abbrev  0x000010c0      0x118 build/default/production/_ext/536368125/BigInt.o
 .debug_abbrev  0x000011d8      0x118 build/default/production/_ext/536368125/DHCP.o
 .debug_abbrev  0x000012f0      0x1fb build/default/production/_ext/536368125/DHCPs.o
 .debug_abbrev  0x000014eb      0x24d build/default/production/_ext/536368125/DNS.o
 .debug_abbrev  0x00001738      0x118 build/default/production/_ext/536368125/DNSs.o
 .debug_abbrev  0x00001850      0x16e build/default/production/_ext/536368125/Delay.o
 .debug_abbrev  0x000019be      0x118 build/default/production/_ext/536368125/DynDNS.o
 .debug_abbrev  0x00001ad6      0x118 build/default/production/_ext/536368125/ENC28J60.o
 .debug_abbrev  0x00001bee      0x118 build/default/production/_ext/536368125/ENCX24J600.o
 .debug_abbrev  0x00001d06      0x330 build/default/production/_ext/536368125/ETHPIC32ExtPhy.o
 .debug_abbrev  0x00002036      0x1a2 build/default/production/_ext/536368125/ETHPIC32ExtPhySMSC8720.o
 .debug_abbrev  0x000021d8      0x33e build/default/production/_ext/536368125/ETHPIC32IntMac.o
 .debug_abbrev  0x00002516      0x118 build/default/production/_ext/536368125/FTP.o
 .debug_abbrev  0x0000262e      0x118 build/default/production/_ext/536368125/FileSystem.o
 .debug_abbrev  0x00002746      0x118 build/default/production/_ext/536368125/HTTP2.o
 .debug_abbrev  0x0000285e      0x118 build/default/production/_ext/536368125/Hashes.o
 .debug_abbrev  0x00002976      0x25d build/default/production/_ext/536368125/Helpers.o
 .debug_abbrev  0x00002bd3      0x179 build/default/production/_ext/536368125/ICMP.o
 .debug_abbrev  0x00002d4c      0x201 build/default/production/_ext/536368125/IP.o
 .debug_abbrev  0x00002f4d      0x118 build/default/production/_ext/536368125/LCDBlocking.o
 .debug_abbrev  0x00003065      0x118 build/default/production/_ext/536368125/MPFS2.o
 .debug_abbrev  0x0000317d      0x118 build/default/production/_ext/536368125/NBNS.o
 .debug_abbrev  0x00003295      0x118 build/default/production/_ext/536368125/RSA.o
 .debug_abbrev  0x000033ad      0x118 build/default/production/_ext/536368125/Random.o
 .debug_abbrev  0x000034c5      0x118 build/default/production/_ext/536368125/Reboot.o
 .debug_abbrev  0x000035dd      0x118 build/default/production/_ext/536368125/SMTP.o
 .debug_abbrev  0x000036f5      0x118 build/default/production/_ext/536368125/SNMP.o
 .debug_abbrev  0x0000380d      0x118 build/default/production/_ext/536368125/SNMPv3.o
 .debug_abbrev  0x00003925      0x118 build/default/production/_ext/536368125/SNMPv3USM.o
 .debug_abbrev  0x00003a3d      0x118 build/default/production/_ext/536368125/SNTP.o
 .debug_abbrev  0x00003b55      0x118 build/default/production/_ext/536368125/SPIEEPROM.o
 .debug_abbrev  0x00003c6d      0x118 build/default/production/_ext/536368125/SPIFlash.o
 .debug_abbrev  0x00003d85      0x118 build/default/production/_ext/536368125/SPIRAM.o
 .debug_abbrev  0x00003e9d      0x118 build/default/production/_ext/536368125/SSL.o
 .debug_abbrev  0x00003fb5      0x1c7 build/default/production/_ext/536368125/StackTsk.o
 .debug_abbrev  0x0000417c      0x2b5 build/default/production/_ext/536368125/TCP.o
 .debug_abbrev  0x00004431      0x118 build/default/production/_ext/536368125/TCPPerformanceTest.o
 .debug_abbrev  0x00004549      0x118 build/default/production/_ext/536368125/TFTPc.o
 .debug_abbrev  0x00004661      0x173 build/default/production/_ext/536368125/Telnet.o
 .debug_abbrev  0x000047d4      0x1d9 build/default/production/_ext/536368125/Tick.o
 .debug_abbrev  0x000049ad      0x118 build/default/production/_ext/536368125/UART.o
 .debug_abbrev  0x00004ac5      0x118 build/default/production/_ext/536368125/UART2TCPBridge.o
 .debug_abbrev  0x00004bdd      0x2f3 build/default/production/_ext/536368125/UDP.o
 .debug_abbrev  0x00004ed0      0x118 build/default/production/_ext/536368125/UDPPerformanceTest.o
 .debug_abbrev  0x00004fe8      0x118 build/default/production/_ext/536368125/ZeroconfHelper.o
 .debug_abbrev  0x00005100      0x118 build/default/production/_ext/536368125/ZeroconfLinkLocal.o
 .debug_abbrev  0x00005218      0x118 build/default/production/_ext/536368125/ZeroconfMulticastDNS.o
 .debug_abbrev  0x00005330      0x118 build/default/production/_ext/1472/CustomHTTPApp.o
 .debug_abbrev  0x00005448      0x118 build/default/production/_ext/1472/CustomSNMPApp.o
 .debug_abbrev  0x00005560      0x118 build/default/production/_ext/1472/CustomSSLCert.o
 .debug_abbrev  0x00005678      0x353 build/default/production/_ext/1472/MainDemo.o
 .debug_abbrev  0x000059cb      0x166 build/default/production/_ext/1472/LEDTCPServer.o
 .debug_abbrev  0x00005b31       0x28 c:/program files/microchip/xc32/v2.41/bin/bin/../../lib/gcc/pic32mx/4.8.3/../../../../pic32mx/lib\libmchp_peripheral.a(read_core_timer_lib.o)
 .debug_abbrev  0x00005b59       0x61 c:/program files/microchip/xc32/v2.41/bin/bin/../../lib/gcc/pic32mx/4.8.3/../../../../pic32mx/lib\libmchp_peripheral_32MX795F512L.a(eth_ack_packet_lib.o)
 .debug_abbrev  0x00005bba       0x37 c:/program files/microchip/xc32/v2.41/bin/bin/../../lib/gcc/pic32mx/4.8.3/../../../../pic32mx/lib\libmchp_peripheral_32MX795F512L.a(eth_descriptors_add_lib.o)
 .debug_abbrev  0x00005bf1       0x37 c:/program files/microchip/xc32/v2.41/bin/bin/../../lib/gcc/pic32mx/4.8.3/../../../../pic32mx/lib\libmchp_peripheral_32MX795F512L.a(eth_init_lib.o)
 .debug_abbrev  0x00005c28       0x28 c:/program files/microchip/xc32/v2.41/bin/bin/../../lib/gcc/pic32mx/4.8.3/../../../../pic32mx/lib\libmchp_peripheral_32MX795F512L.a(eth_mac_open_lib.o)
 .debug_abbrev  0x00005c50       0x3e c:/program files/microchip/xc32/v2.41/bin/bin/../../lib/gcc/pic32mx/4.8.3/../../../../pic32mx/lib\libmchp_peripheral_32MX795F512L.a(eth_mac_set_address_max_lib.o)
 .debug_abbrev  0x00005c8e       0x37 c:/program files/microchip/xc32/v2.41/bin/bin/../../lib/gcc/pic32mx/4.8.3/../../../../pic32mx/lib\libmchp_peripheral_32MX795F512L.a(eth_rx_buffers_append_lib.o)
 .debug_abbrev  0x00005cc5       0x28 c:/program files/microchip/xc32/v2.41/bin/bin/../../lib/gcc/pic32mx/4.8.3/../../../../pic32mx/lib\libmchp_peripheral_32MX795F512L.a(eth_rx_filters_lib.o)
 .debug_abbrev  0x00005ced       0x3e c:/program files/microchip/xc32/v2.41/bin/bin/../../lib/gcc/pic32mx/4.8.3/../../../../pic32mx/lib\libmchp_peripheral_32MX795F512L.a(eth_rx_get_packet_lib.o)
 .debug_abbrev  0x00005d2b       0x28 c:/program files/microchip/xc32/v2.41/bin/bin/../../lib/gcc/pic32mx/4.8.3/../../../../pic32mx/lib\libmchp_peripheral_32MX795F512L.a(eth_rx_set_buffer_size_lib.o)
 .debug_abbrev  0x00005d53       0x8d c:/program files/microchip/xc32/v2.41/bin/bin/../../lib/gcc/pic32mx/4.8.3/../../../../pic32mx/lib\libmchp_peripheral_32MX795F512L.a(eth_tx_packet_lib.o)
 .debug_abbrev  0x00005de0       0x37 c:/program files/microchip/xc32/v2.41/bin/bin/../../lib/gcc/pic32mx/4.8.3/../../../../pic32mx/lib\libmchp_peripheral_32MX795F512L.a(_eth_append_busy_list_lib.o)
 .debug_abbrev  0x00005e17       0x3e c:/program files/microchip/xc32/v2.41/bin/bin/../../lib/gcc/pic32mx/4.8.3/../../../../pic32mx/lib\libmchp_peripheral_32MX795F512L.a(eth_miim_access.o)
 .debug_abbrev  0x00005e55       0x28 c:/program files/microchip/xc32/v2.41/bin/bin/../../lib/gcc/pic32mx/4.8.3/../../../../pic32mx/lib\libmchp_peripheral_32MX795F512L.a(pcache.o)
 .debug_abbrev  0x00005e7d       0x28 c:/program files/microchip/xc32/v2.41/bin/bin/../../lib/gcc/pic32mx/4.8.3/../../../../pic32mx/lib\libmchp_peripheral_32MX795F512L.a(int_disable_interrupts_lib.o)
 .debug_abbrev  0x00005ea5       0x28 c:/program files/microchip/xc32/v2.41/bin/bin/../../lib/gcc/pic32mx/4.8.3/../../../../pic32mx/lib\libmchp_peripheral_32MX795F512L.a(int_restore_interrupts_lib.o)
 .debug_abbrev  0x00005ecd       0x28 c:/program files/microchip/xc32/v2.41/bin/bin/../../lib/gcc/pic32mx/4.8.3/../../../../pic32mx/lib\libmchp_peripheral_32MX795F512L.a(int_enable_mv_int_lib.o)
 .debug_abbrev  0x00005ef5       0x28 c:/program files/microchip/xc32/v2.41/bin/bin/../../lib/gcc/pic32mx/4.8.3/../../../../pic32mx/lib\libmchp_peripheral_32MX795F512L.a(int_tbl_lib.o)
 .debug_abbrev  0x00005f1d       0x28 c:/program files/microchip/xc32/v2.41/bin/bin/../../lib/gcc/pic32mx/4.8.3/../../../../pic32mx/lib\libmchp_peripheral_32MX795F512L.a(port_set_pins_digital_in_lib.o)
 .debug_abbrev  0x00005f45       0x28 c:/program files/microchip/xc32/v2.41/bin/bin/../../lib/gcc/pic32mx/4.8.3/../../../../pic32mx/lib\libmchp_peripheral_32MX795F512L.a(port_set_pins_digital_out_lib.o)
 .debug_abbrev  0x00005f6d       0x28 c:/program files/microchip/xc32/v2.41/bin/bin/../../lib/gcc/pic32mx/4.8.3/../../../../pic32mx/lib\libmchp_peripheral_32MX795F512L.a(port_clear_bits_lib.o)
 .debug_abbrev  0x00005f95       0x28 c:/program files/microchip/xc32/v2.41/bin/bin/../../lib/gcc/pic32mx/4.8.3/../../../../pic32mx/lib\libmchp_peripheral_32MX795F512L.a(port_set_bits_lib.o)
 .debug_abbrev  0x00005fbd       0x28 c:/program files/microchip/xc32/v2.41/bin/bin/../../lib/gcc/pic32mx/4.8.3/../../../../pic32mx/lib\libmchp_peripheral_32MX795F512L.a(int_enable_interrupts_lib.o)
 .debug_abbrev  0x00005fe5      0x138 c:/program files/microchip/xc32/v2.41/bin/bin/../../lib/gcc/pic32mx/4.8.3\libgcc.a(_udivdi3.o)
 .debug_abbrev  0x0000611d       0x28 c:/program files/microchip/xc32/v2.41/bin/bin/../../lib/gcc/pic32mx/4.8.3/../../../../pic32mx/lib\libpic32.a(default-bootstrap-exception-handler.o)
 .debug_abbrev  0x00006145       0x28 c:/program files/microchip/xc32/v2.41/bin/bin/../../lib/gcc/pic32mx/4.8.3/../../../../pic32mx/lib\libpic32.a(default-on-reset.o)
 .debug_abbrev  0x0000616d       0x28 c:/program files/microchip/xc32/v2.41/bin/bin/../../lib/gcc/pic32mx/4.8.3/../../../../pic32mx/lib\libpic32.a(default-on-bootstrap.o)
 .debug_abbrev  0x00006195       0x28 c:/program files/microchip/xc32/v2.41/bin/bin/../../lib/gcc/pic32mx/4.8.3/../../../../pic32mx/lib\libpic32.a(defaultinterrupt.o)
 .debug_abbrev  0x000061bd       0x28 c:/program files/microchip/xc32/v2.41/bin/bin/../../lib/gcc/pic32mx/4.8.3/../../../../pic32mx/lib\libc.a(calloc.o)
 .debug_abbrev  0x000061e5       0x47 c:/program files/microchip/xc32/v2.41/bin/bin/../../lib/gcc/pic32mx/4.8.3/../../../../pic32mx/lib\libc.a(malloc.o)
 .debug_abbrev  0x0000622c       0x28 c:/program files/microchip/xc32/v2.41/bin/bin/../../lib/gcc/pic32mx/4.8.3/../../../../pic32mx/lib\libc.a(strncpy.o)
 .debug_abbrev  0x00006254       0x54 c:/program files/microchip/xc32/v2.41/bin/bin/../../lib/gcc/pic32mx/4.8.3/../../../../pic32mx/lib\libpic32.a(sbrk.o)

.debug_line     0x00000000     0xa88e
 *(.debug_line)
 .debug_line    0x00000000      0x1a4 build/default/production/_ext/1472/BerkeleyTCPClientDemo.o
 .debug_line    0x000001a4      0x1a4 build/default/production/_ext/1472/BerkeleyTCPServerDemo.o
 .debug_line    0x00000348      0x1a4 build/default/production/_ext/1472/BerkeleyUDPClientDemo.o
 .debug_line    0x000004ec      0x303 build/default/production/_ext/1472/GenericTCPClient.o
 .debug_line    0x000007ef      0x2f0 build/default/production/_ext/1472/GenericTCPServer.o
 .debug_line    0x00000adf      0x1a4 build/default/production/_ext/1472/PingDemo.o
 .debug_line    0x00000c83      0x1a4 build/default/production/_ext/1472/SMTPDemo.o
 .debug_line    0x00000e27      0x1a4 build/default/production/_ext/1472/UARTConfig.o
 .debug_line    0x00000fcb      0x1a4 build/default/production/_ext/536368125/ARCFOUR.o
 .debug_line    0x0000116f      0x357 build/default/production/_ext/536368125/ARP.o
 .debug_line    0x000014c6      0x327 build/default/production/_ext/536368125/Announce.o
 .debug_line    0x000017ed      0x1a4 build/default/production/_ext/536368125/AutoIP.o
 .debug_line    0x00001991      0x1a4 build/default/production/_ext/536368125/BerkeleyAPI.o
 .debug_line    0x00001b35      0x1a4 build/default/production/_ext/536368125/BigInt.o
 .debug_line    0x00001cd9      0x1a4 build/default/production/_ext/536368125/DHCP.o
 .debug_line    0x00001e7d      0x3cf build/default/production/_ext/536368125/DHCPs.o
 .debug_line    0x0000224c      0x41a build/default/production/_ext/536368125/DNS.o
 .debug_line    0x00002666      0x1a4 build/default/production/_ext/536368125/DNSs.o
 .debug_line    0x0000280a      0x243 build/default/production/_ext/536368125/Delay.o
 .debug_line    0x00002a4d      0x1a4 build/default/production/_ext/536368125/DynDNS.o
 .debug_line    0x00002bf1      0x1a4 build/default/production/_ext/536368125/ENC28J60.o
 .debug_line    0x00002d95      0x1a4 build/default/production/_ext/536368125/ENCX24J600.o
 .debug_line    0x00002f39      0x51c build/default/production/_ext/536368125/ETHPIC32ExtPhy.o
 .debug_line    0x00003455      0x317 build/default/production/_ext/536368125/ETHPIC32ExtPhySMSC8720.o
 .debug_line    0x0000376c      0x4b4 build/default/production/_ext/536368125/ETHPIC32IntMac.o
 .debug_line    0x00003c20      0x1a4 build/default/production/_ext/536368125/FTP.o
 .debug_line    0x00003dc4      0x1a4 build/default/production/_ext/536368125/FileSystem.o
 .debug_line    0x00003f68      0x1a4 build/default/production/_ext/536368125/HTTP2.o
 .debug_line    0x0000410c      0x1a4 build/default/production/_ext/536368125/Hashes.o
 .debug_line    0x000042b0      0x40d build/default/production/_ext/536368125/Helpers.o
 .debug_line    0x000046bd      0x2d4 build/default/production/_ext/536368125/ICMP.o
 .debug_line    0x00004991      0x30a build/default/production/_ext/536368125/IP.o
 .debug_line    0x00004c9b      0x1a4 build/default/production/_ext/536368125/LCDBlocking.o
 .debug_line    0x00004e3f      0x1a4 build/default/production/_ext/536368125/MPFS2.o
 .debug_line    0x00004fe3      0x1a4 build/default/production/_ext/536368125/NBNS.o
 .debug_line    0x00005187      0x1a4 build/default/production/_ext/536368125/RSA.o
 .debug_line    0x0000532b      0x1a4 build/default/production/_ext/536368125/Random.o
 .debug_line    0x000054cf      0x1a4 build/default/production/_ext/536368125/Reboot.o
 .debug_line    0x00005673      0x1a4 build/default/production/_ext/536368125/SMTP.o
 .debug_line    0x00005817      0x1a4 build/default/production/_ext/536368125/SNMP.o
 .debug_line    0x000059bb      0x1a4 build/default/production/_ext/536368125/SNMPv3.o
 .debug_line    0x00005b5f      0x1a4 build/default/production/_ext/536368125/SNMPv3USM.o
 .debug_line    0x00005d03      0x1a4 build/default/production/_ext/536368125/SNTP.o
 .debug_line    0x00005ea7      0x1a4 build/default/production/_ext/536368125/SPIEEPROM.o
 .debug_line    0x0000604b      0x1a4 build/default/production/_ext/536368125/SPIFlash.o
 .debug_line    0x000061ef      0x1a4 build/default/production/_ext/536368125/SPIRAM.o
 .debug_line    0x00006393      0x1a4 build/default/production/_ext/536368125/SSL.o
 .debug_line    0x00006537      0x312 build/default/production/_ext/536368125/StackTsk.o
 .debug_line    0x00006849      0xc99 build/default/production/_ext/536368125/TCP.o
 .debug_line    0x000074e2      0x1a4 build/default/production/_ext/536368125/TCPPerformanceTest.o
 .debug_line    0x00007686      0x1a4 build/default/production/_ext/536368125/TFTPc.o
 .debug_line    0x0000782a      0x386 build/default/production/_ext/536368125/Telnet.o
 .debug_line    0x00007bb0      0x282 build/default/production/_ext/536368125/Tick.o
 .debug_line    0x00007e32      0x1a4 build/default/production/_ext/536368125/UART.o
 .debug_line    0x00007fd6      0x1a4 build/default/production/_ext/536368125/UART2TCPBridge.o
 .debug_line    0x0000817a      0x489 build/default/production/_ext/536368125/UDP.o
 .debug_line    0x00008603      0x1a4 build/default/production/_ext/536368125/UDPPerformanceTest.o
 .debug_line    0x000087a7      0x1a4 build/default/production/_ext/536368125/ZeroconfHelper.o
 .debug_line    0x0000894b      0x1a4 build/default/production/_ext/536368125/ZeroconfLinkLocal.o
 .debug_line    0x00008aef      0x1a4 build/default/production/_ext/536368125/ZeroconfMulticastDNS.o
 .debug_line    0x00008c93      0x1a4 build/default/production/_ext/1472/CustomHTTPApp.o
 .debug_line    0x00008e37      0x1a4 build/default/production/_ext/1472/CustomSNMPApp.o
 .debug_line    0x00008fdb      0x1a4 build/default/production/_ext/1472/CustomSSLCert.o
 .debug_line    0x0000917f      0x442 build/default/production/_ext/1472/MainDemo.o
 .debug_line    0x000095c1      0x347 build/default/production/_ext/1472/LEDTCPServer.o
 .debug_line    0x00009908       0x6b c:/program files/microchip/xc32/v2.41/bin/bin/../../lib/gcc/pic32mx/4.8.3/../../../../pic32mx/lib\libmchp_peripheral.a(read_core_timer_lib.o)
 .debug_line    0x00009973       0x7d c:/program files/microchip/xc32/v2.41/bin/bin/../../lib/gcc/pic32mx/4.8.3/../../../../pic32mx/lib\libmchp_peripheral_32MX795F512L.a(eth_ack_packet_lib.o)
 .debug_line    0x000099f0       0x82 c:/program files/microchip/xc32/v2.41/bin/bin/../../lib/gcc/pic32mx/4.8.3/../../../../pic32mx/lib\libmchp_peripheral_32MX795F512L.a(eth_descriptors_add_lib.o)
 .debug_line    0x00009a72       0x74 c:/program files/microchip/xc32/v2.41/bin/bin/../../lib/gcc/pic32mx/4.8.3/../../../../pic32mx/lib\libmchp_peripheral_32MX795F512L.a(eth_init_lib.o)
 .debug_line    0x00009ae6       0x66 c:/program files/microchip/xc32/v2.41/bin/bin/../../lib/gcc/pic32mx/4.8.3/../../../../pic32mx/lib\libmchp_peripheral_32MX795F512L.a(eth_mac_open_lib.o)
 .debug_line    0x00009b4c       0x71 c:/program files/microchip/xc32/v2.41/bin/bin/../../lib/gcc/pic32mx/4.8.3/../../../../pic32mx/lib\libmchp_peripheral_32MX795F512L.a(eth_mac_set_address_max_lib.o)
 .debug_line    0x00009bbd       0x84 c:/program files/microchip/xc32/v2.41/bin/bin/../../lib/gcc/pic32mx/4.8.3/../../../../pic32mx/lib\libmchp_peripheral_32MX795F512L.a(eth_rx_buffers_append_lib.o)
 .debug_line    0x00009c41       0x68 c:/program files/microchip/xc32/v2.41/bin/bin/../../lib/gcc/pic32mx/4.8.3/../../../../pic32mx/lib\libmchp_peripheral_32MX795F512L.a(eth_rx_filters_lib.o)
 .debug_line    0x00009ca9       0x6b c:/program files/microchip/xc32/v2.41/bin/bin/../../lib/gcc/pic32mx/4.8.3/../../../../pic32mx/lib\libmchp_peripheral_32MX795F512L.a(eth_rx_get_packet_lib.o)
 .debug_line    0x00009d14       0x70 c:/program files/microchip/xc32/v2.41/bin/bin/../../lib/gcc/pic32mx/4.8.3/../../../../pic32mx/lib\libmchp_peripheral_32MX795F512L.a(eth_rx_set_buffer_size_lib.o)
 .debug_line    0x00009d84       0x7c c:/program files/microchip/xc32/v2.41/bin/bin/../../lib/gcc/pic32mx/4.8.3/../../../../pic32mx/lib\libmchp_peripheral_32MX795F512L.a(eth_tx_packet_lib.o)
 .debug_line    0x00009e00       0x84 c:/program files/microchip/xc32/v2.41/bin/bin/../../lib/gcc/pic32mx/4.8.3/../../../../pic32mx/lib\libmchp_peripheral_32MX795F512L.a(_eth_append_busy_list_lib.o)
 .debug_line    0x00009e84       0x65 c:/program files/microchip/xc32/v2.41/bin/bin/../../lib/gcc/pic32mx/4.8.3/../../../../pic32mx/lib\libmchp_peripheral_32MX795F512L.a(eth_miim_access.o)
 .debug_line    0x00009ee9       0x5f c:/program files/microchip/xc32/v2.41/bin/bin/../../lib/gcc/pic32mx/4.8.3/../../../../pic32mx/lib\libmchp_peripheral_32MX795F512L.a(pcache.o)
 .debug_line    0x00009f48       0x70 c:/program files/microchip/xc32/v2.41/bin/bin/../../lib/gcc/pic32mx/4.8.3/../../../../pic32mx/lib\libmchp_peripheral_32MX795F512L.a(int_disable_interrupts_lib.o)
 .debug_line    0x00009fb8       0x70 c:/program files/microchip/xc32/v2.41/bin/bin/../../lib/gcc/pic32mx/4.8.3/../../../../pic32mx/lib\libmchp_peripheral_32MX795F512L.a(int_restore_interrupts_lib.o)
 .debug_line    0x0000a028       0x6b c:/program files/microchip/xc32/v2.41/bin/bin/../../lib/gcc/pic32mx/4.8.3/../../../../pic32mx/lib\libmchp_peripheral_32MX795F512L.a(int_enable_mv_int_lib.o)
 .debug_line    0x0000a093       0x61 c:/program files/microchip/xc32/v2.41/bin/bin/../../lib/gcc/pic32mx/4.8.3/../../../../pic32mx/lib\libmchp_peripheral_32MX795F512L.a(int_tbl_lib.o)
 .debug_line    0x0000a0f4       0x74 c:/program files/microchip/xc32/v2.41/bin/bin/../../lib/gcc/pic32mx/4.8.3/../../../../pic32mx/lib\libmchp_peripheral_32MX795F512L.a(port_set_pins_digital_in_lib.o)
 .debug_line    0x0000a168       0x75 c:/program files/microchip/xc32/v2.41/bin/bin/../../lib/gcc/pic32mx/4.8.3/../../../../pic32mx/lib\libmchp_peripheral_32MX795F512L.a(port_set_pins_digital_out_lib.o)
 .debug_line    0x0000a1dd       0x6b c:/program files/microchip/xc32/v2.41/bin/bin/../../lib/gcc/pic32mx/4.8.3/../../../../pic32mx/lib\libmchp_peripheral_32MX795F512L.a(port_clear_bits_lib.o)
 .debug_line    0x0000a248       0x69 c:/program files/microchip/xc32/v2.41/bin/bin/../../lib/gcc/pic32mx/4.8.3/../../../../pic32mx/lib\libmchp_peripheral_32MX795F512L.a(port_set_bits_lib.o)
 .debug_line    0x0000a2b1        0x0 c:/program files/microchip/xc32/v2.41/bin/bin/../../lib/gcc/pic32mx/4.8.3/../../../../pic32mx/lib\libmchp_peripheral_32MX795F512L.a(_ports_tbl_libp.o)
 .debug_line    0x0000a2b1       0x6f c:/program files/microchip/xc32/v2.41/bin/bin/../../lib/gcc/pic32mx/4.8.3/../../../../pic32mx/lib\libmchp_peripheral_32MX795F512L.a(int_enable_interrupts_lib.o)
 .debug_line    0x0000a320       0xf7 c:/program files/microchip/xc32/v2.41/bin/bin/../../lib/gcc/pic32mx/4.8.3\libgcc.a(_udivdi3.o)
 .debug_line    0x0000a417       0xa6 c:/program files/microchip/xc32/v2.41/bin/bin/../../lib/gcc/pic32mx/4.8.3/../../../../pic32mx/lib\libpic32.a(default-bootstrap-exception-handler.o)
 .debug_line    0x0000a4bd       0x93 c:/program files/microchip/xc32/v2.41/bin/bin/../../lib/gcc/pic32mx/4.8.3/../../../../pic32mx/lib\libpic32.a(default-on-reset.o)
 .debug_line    0x0000a550       0x97 c:/program files/microchip/xc32/v2.41/bin/bin/../../lib/gcc/pic32mx/4.8.3/../../../../pic32mx/lib\libpic32.a(default-on-bootstrap.o)
 .debug_line    0x0000a5e7       0xa5 c:/program files/microchip/xc32/v2.41/bin/bin/../../lib/gcc/pic32mx/4.8.3/../../../../pic32mx/lib\libpic32.a(defaultinterrupt.o)
 .debug_line    0x0000a68c       0x7e c:/program files/microchip/xc32/v2.41/bin/bin/../../lib/gcc/pic32mx/4.8.3/../../../../pic32mx/lib\libc.a(calloc.o)
 .debug_line    0x0000a70a       0x7e c:/program files/microchip/xc32/v2.41/bin/bin/../../lib/gcc/pic32mx/4.8.3/../../../../pic32mx/lib\libc.a(malloc.o)
 .debug_line    0x0000a788       0x7f c:/program files/microchip/xc32/v2.41/bin/bin/../../lib/gcc/pic32mx/4.8.3/../../../../pic32mx/lib\libc.a(strncpy.o)
 .debug_line    0x0000a807       0x87 c:/program files/microchip/xc32/v2.41/bin/bin/../../lib/gcc/pic32mx/4.8.3/../../../../pic32mx/lib\libpic32.a(sbrk.o)
 .debug_line    0x0000a88e        0x0 c:/program files/microchip/xc32/v2.41/bin/bin/../../lib/gcc/pic32mx/4.8.3/../../../../pic32mx/lib\libpic32.a(errno.o)

.debug_frame    0x00000000     0x1e14
 *(.debug_frame)
 .debug_frame   0x00000000       0x34 build/default/production/_ext/1472/GenericTCPClient.o
 .debug_frame   0x00000034       0x34 build/default/production/_ext/1472/GenericTCPServer.o
 .debug_frame   0x00000068      0x104 build/default/production/_ext/536368125/ARP.o
 .debug_frame   0x0000016c       0x58 build/default/production/_ext/536368125/Announce.o
 .debug_frame   0x000001c4       0x7c build/default/production/_ext/536368125/DHCPs.o
 .debug_frame   0x00000240       0xe4 build/default/production/_ext/536368125/DNS.o
 .debug_frame   0x00000324       0x54 build/default/production/_ext/536368125/Delay.o
 .debug_frame   0x00000378      0x1b8 build/default/production/_ext/536368125/ETHPIC32ExtPhy.o
 .debug_frame   0x00000530       0x94 build/default/production/_ext/536368125/ETHPIC32ExtPhySMSC8720.o
 .debug_frame   0x000005c4      0x364 build/default/production/_ext/536368125/ETHPIC32IntMac.o
 .debug_frame   0x00000928      0x230 build/default/production/_ext/536368125/Helpers.o
 .debug_frame   0x00000b58       0x34 build/default/production/_ext/536368125/ICMP.o
 .debug_frame   0x00000b8c       0xa0 build/default/production/_ext/536368125/IP.o
 .debug_frame   0x00000c2c       0x7c build/default/production/_ext/536368125/StackTsk.o
 .debug_frame   0x00000ca8      0x4d8 build/default/production/_ext/536368125/TCP.o
 .debug_frame   0x00001180       0x34 build/default/production/_ext/536368125/Telnet.o
 .debug_frame   0x000011b4      0x104 build/default/production/_ext/536368125/Tick.o
 .debug_frame   0x000012b8      0x294 build/default/production/_ext/536368125/UDP.o
 .debug_frame   0x0000154c       0xdc build/default/production/_ext/1472/MainDemo.o
 .debug_frame   0x00001628       0x34 build/default/production/_ext/1472/LEDTCPServer.o
 .debug_frame   0x0000165c       0x20 c:/program files/microchip/xc32/v2.41/bin/bin/../../lib/gcc/pic32mx/4.8.3/../../../../pic32mx/lib\libmchp_peripheral.a(read_core_timer_lib.o)
 .debug_frame   0x0000167c       0xb0 c:/program files/microchip/xc32/v2.41/bin/bin/../../lib/gcc/pic32mx/4.8.3/../../../../pic32mx/lib\libmchp_peripheral_32MX795F512L.a(eth_ack_packet_lib.o)
 .debug_frame   0x0000172c       0x50 c:/program files/microchip/xc32/v2.41/bin/bin/../../lib/gcc/pic32mx/4.8.3/../../../../pic32mx/lib\libmchp_peripheral_32MX795F512L.a(eth_descriptors_add_lib.o)
 .debug_frame   0x0000177c       0x28 c:/program files/microchip/xc32/v2.41/bin/bin/../../lib/gcc/pic32mx/4.8.3/../../../../pic32mx/lib\libmchp_peripheral_32MX795F512L.a(eth_init_lib.o)
 .debug_frame   0x000017a4       0x20 c:/program files/microchip/xc32/v2.41/bin/bin/../../lib/gcc/pic32mx/4.8.3/../../../../pic32mx/lib\libmchp_peripheral_32MX795F512L.a(eth_mac_open_lib.o)
 .debug_frame   0x000017c4       0x50 c:/program files/microchip/xc32/v2.41/bin/bin/../../lib/gcc/pic32mx/4.8.3/../../../../pic32mx/lib\libmchp_peripheral_32MX795F512L.a(eth_mac_set_address_max_lib.o)
 .debug_frame   0x00001814       0x28 c:/program files/microchip/xc32/v2.41/bin/bin/../../lib/gcc/pic32mx/4.8.3/../../../../pic32mx/lib\libmchp_peripheral_32MX795F512L.a(eth_rx_buffers_append_lib.o)
 .debug_frame   0x0000183c       0x70 c:/program files/microchip/xc32/v2.41/bin/bin/../../lib/gcc/pic32mx/4.8.3/../../../../pic32mx/lib\libmchp_peripheral_32MX795F512L.a(eth_rx_filters_lib.o)
 .debug_frame   0x000018ac       0x38 c:/program files/microchip/xc32/v2.41/bin/bin/../../lib/gcc/pic32mx/4.8.3/../../../../pic32mx/lib\libmchp_peripheral_32MX795F512L.a(eth_rx_get_packet_lib.o)
 .debug_frame   0x000018e4       0x20 c:/program files/microchip/xc32/v2.41/bin/bin/../../lib/gcc/pic32mx/4.8.3/../../../../pic32mx/lib\libmchp_peripheral_32MX795F512L.a(eth_rx_set_buffer_size_lib.o)
 .debug_frame   0x00001904       0x90 c:/program files/microchip/xc32/v2.41/bin/bin/../../lib/gcc/pic32mx/4.8.3/../../../../pic32mx/lib\libmchp_peripheral_32MX795F512L.a(eth_tx_packet_lib.o)
 .debug_frame   0x00001994       0x20 c:/program files/microchip/xc32/v2.41/bin/bin/../../lib/gcc/pic32mx/4.8.3/../../../../pic32mx/lib\libmchp_peripheral_32MX795F512L.a(_eth_append_busy_list_lib.o)
 .debug_frame   0x000019b4       0x70 c:/program files/microchip/xc32/v2.41/bin/bin/../../lib/gcc/pic32mx/4.8.3/../../../../pic32mx/lib\libmchp_peripheral_32MX795F512L.a(eth_miim_access.o)
 .debug_frame   0x00001a24       0x30 c:/program files/microchip/xc32/v2.41/bin/bin/../../lib/gcc/pic32mx/4.8.3/../../../../pic32mx/lib\libmchp_peripheral_32MX795F512L.a(pcache.o)
 .debug_frame   0x00001a54       0x20 c:/program files/microchip/xc32/v2.41/bin/bin/../../lib/gcc/pic32mx/4.8.3/../../../../pic32mx/lib\libmchp_peripheral_32MX795F512L.a(int_disable_interrupts_lib.o)
 .debug_frame   0x00001a74       0x20 c:/program files/microchip/xc32/v2.41/bin/bin/../../lib/gcc/pic32mx/4.8.3/../../../../pic32mx/lib\libmchp_peripheral_32MX795F512L.a(int_restore_interrupts_lib.o)
 .debug_frame   0x00001a94       0x28 c:/program files/microchip/xc32/v2.41/bin/bin/../../lib/gcc/pic32mx/4.8.3/../../../../pic32mx/lib\libmchp_peripheral_32MX795F512L.a(int_enable_mv_int_lib.o)
 .debug_frame   0x00001abc       0xa0 c:/program files/microchip/xc32/v2.41/bin/bin/../../lib/gcc/pic32mx/4.8.3/../../../../pic32mx/lib\libmchp_peripheral_32MX795F512L.a(int_tbl_lib.o)
 .debug_frame   0x00001b5c       0x20 c:/program files/microchip/xc32/v2.41/bin/bin/../../lib/gcc/pic32mx/4.8.3/../../../../pic32mx/lib\libmchp_peripheral_32MX795F512L.a(port_set_pins_digital_in_lib.o)
 .debug_frame   0x00001b7c       0x20 c:/program files/microchip/xc32/v2.41/bin/bin/../../lib/gcc/pic32mx/4.8.3/../../../../pic32mx/lib\libmchp_peripheral_32MX795F512L.a(port_set_pins_digital_out_lib.o)
 .debug_frame   0x00001b9c       0x20 c:/program files/microchip/xc32/v2.41/bin/bin/../../lib/gcc/pic32mx/4.8.3/../../../../pic32mx/lib\libmchp_peripheral_32MX795F512L.a(port_clear_bits_lib.o)
 .debug_frame   0x00001bbc       0x20 c:/program files/microchip/xc32/v2.41/bin/bin/../../lib/gcc/pic32mx/4.8.3/../../../../pic32mx/lib\libmchp_peripheral_32MX795F512L.a(port_set_bits_lib.o)
 .debug_frame   0x00001bdc       0x20 c:/program files/microchip/xc32/v2.41/bin/bin/../../lib/gcc/pic32mx/4.8.3/../../../../pic32mx/lib\libmchp_peripheral_32MX795F512L.a(int_enable_interrupts_lib.o)
 .debug_frame   0x00001bfc       0x20 c:/program files/microchip/xc32/v2.41/bin/bin/../../lib/gcc/pic32mx/4.8.3\libgcc.a(_udivdi3.o)
 .debug_frame   0x00001c1c       0x2c c:/program files/microchip/xc32/v2.41/bin/bin/../../lib/gcc/pic32mx/4.8.3/../../../../pic32mx/lib\libpic32.a(default-bootstrap-exception-handler.o)
 .debug_frame   0x00001c48       0x20 c:/program files/microchip/xc32/v2.41/bin/bin/../../lib/gcc/pic32mx/4.8.3/../../../../pic32mx/lib\libpic32.a(default-on-reset.o)
 .debug_frame   0x00001c68       0x20 c:/program files/microchip/xc32/v2.41/bin/bin/../../lib/gcc/pic32mx/4.8.3/../../../../pic32mx/lib\libpic32.a(default-on-bootstrap.o)
 .debug_frame   0x00001c88       0x20 c:/program files/microchip/xc32/v2.41/bin/bin/../../lib/gcc/pic32mx/4.8.3/../../../../pic32mx/lib\libpic32.a(defaultinterrupt.o)
 .debug_frame   0x00001ca8       0x2c c:/program files/microchip/xc32/v2.41/bin/bin/../../lib/gcc/pic32mx/4.8.3/../../../../pic32mx/lib\libc.a(calloc.o)
 .debug_frame   0x00001cd4       0x7c c:/program files/microchip/xc32/v2.41/bin/bin/../../lib/gcc/pic32mx/4.8.3/../../../../pic32mx/lib\libc.a(malloc.o)
 .debug_frame   0x00001d50       0x20 c:/program files/microchip/xc32/v2.41/bin/bin/../../lib/gcc/pic32mx/4.8.3/../../../../pic32mx/lib\libc.a(strncpy.o)
 .debug_frame   0x00001d70       0xa4 c:/program files/microchip/xc32/v2.41/bin/bin/../../lib/gcc/pic32mx/4.8.3/../../../../pic32mx/lib\libpic32.a(sbrk.o)

.debug_str      0x00000000      0x1d4
 *(.debug_str)
 .debug_str     0x00000000        0x0 build/default/production/_ext/1472/BerkeleyTCPClientDemo.o
 .debug_str     0x00000000        0x0 build/default/production/_ext/1472/BerkeleyTCPServerDemo.o
 .debug_str     0x00000000        0x0 build/default/production/_ext/1472/BerkeleyUDPClientDemo.o
 .debug_str     0x00000000        0x0 build/default/production/_ext/1472/GenericTCPClient.o
 .debug_str     0x00000000        0x0 build/default/production/_ext/1472/GenericTCPServer.o
 .debug_str     0x00000000        0x0 build/default/production/_ext/1472/PingDemo.o
 .debug_str     0x00000000        0x0 build/default/production/_ext/1472/SMTPDemo.o
 .debug_str     0x00000000        0x0 build/default/production/_ext/1472/UARTConfig.o
 .debug_str     0x00000000        0x0 build/default/production/_ext/536368125/ARCFOUR.o
 .debug_str     0x00000000        0xe build/default/production/_ext/536368125/ARP.o
 .debug_str     0x0000000e       0x14 build/default/production/_ext/536368125/Announce.o
 .debug_str     0x00000022        0x0 build/default/production/_ext/536368125/AutoIP.o
 .debug_str     0x00000022        0x0 build/default/production/_ext/536368125/BerkeleyAPI.o
 .debug_str     0x00000022        0x0 build/default/production/_ext/536368125/BigInt.o
 .debug_str     0x00000022        0x0 build/default/production/_ext/536368125/DHCP.o
 .debug_str     0x00000022        0x0 build/default/production/_ext/536368125/DHCPs.o
 .debug_str     0x00000022        0x0 build/default/production/_ext/536368125/DNS.o
 .debug_str     0x00000022        0x0 build/default/production/_ext/536368125/DNSs.o
 .debug_str     0x00000022        0x0 build/default/production/_ext/536368125/Delay.o
 .debug_str     0x00000022        0x0 build/default/production/_ext/536368125/DynDNS.o
 .debug_str     0x00000022        0x0 build/default/production/_ext/536368125/ENC28J60.o
 .debug_str     0x00000022        0x0 build/default/production/_ext/536368125/ENCX24J600.o
 .debug_str     0x00000022       0x79 build/default/production/_ext/536368125/ETHPIC32ExtPhy.o
 .debug_str     0x0000009b        0x0 build/default/production/_ext/536368125/ETHPIC32ExtPhySMSC8720.o
 .debug_str     0x0000009b       0x25 build/default/production/_ext/536368125/ETHPIC32IntMac.o
 .debug_str     0x000000c0        0x0 build/default/production/_ext/536368125/FTP.o
 .debug_str     0x000000c0        0x0 build/default/production/_ext/536368125/FileSystem.o
 .debug_str     0x000000c0        0x0 build/default/production/_ext/536368125/HTTP2.o
 .debug_str     0x000000c0        0x0 build/default/production/_ext/536368125/Hashes.o
 .debug_str     0x000000c0        0x0 build/default/production/_ext/536368125/Helpers.o
 .debug_str     0x000000c0        0x0 build/default/production/_ext/536368125/ICMP.o
 .debug_str     0x000000c0        0x9 build/default/production/_ext/536368125/IP.o
 .debug_str     0x000000c9        0x0 build/default/production/_ext/536368125/LCDBlocking.o
 .debug_str     0x000000c9        0x0 build/default/production/_ext/536368125/MPFS2.o
 .debug_str     0x000000c9        0x0 build/default/production/_ext/536368125/NBNS.o
 .debug_str     0x000000c9        0x0 build/default/production/_ext/536368125/RSA.o
 .debug_str     0x000000c9        0x0 build/default/production/_ext/536368125/Random.o
 .debug_str     0x000000c9        0x0 build/default/production/_ext/536368125/Reboot.o
 .debug_str     0x000000c9        0x0 build/default/production/_ext/536368125/SMTP.o
 .debug_str     0x000000c9        0x0 build/default/production/_ext/536368125/SNMP.o
 .debug_str     0x000000c9        0x0 build/default/production/_ext/536368125/SNMPv3.o
 .debug_str     0x000000c9        0x0 build/default/production/_ext/536368125/SNMPv3USM.o
 .debug_str     0x000000c9        0x0 build/default/production/_ext/536368125/SNTP.o
 .debug_str     0x000000c9        0x0 build/default/production/_ext/536368125/SPIEEPROM.o
 .debug_str     0x000000c9        0x0 build/default/production/_ext/536368125/SPIFlash.o
 .debug_str     0x000000c9        0x0 build/default/production/_ext/536368125/SPIRAM.o
 .debug_str     0x000000c9        0x0 build/default/production/_ext/536368125/SSL.o
 .debug_str     0x000000c9        0x0 build/default/production/_ext/536368125/StackTsk.o
 .debug_str     0x000000c9       0xac build/default/production/_ext/536368125/TCP.o
 .debug_str     0x00000175        0x0 build/default/production/_ext/536368125/TCPPerformanceTest.o
 .debug_str     0x00000175        0x0 build/default/production/_ext/536368125/TFTPc.o
 .debug_str     0x00000175        0x0 build/default/production/_ext/536368125/Telnet.o
 .debug_str     0x00000175        0x0 build/default/production/_ext/536368125/Tick.o
 .debug_str     0x00000175        0x0 build/default/production/_ext/536368125/UART.o
 .debug_str     0x00000175        0x0 build/default/production/_ext/536368125/UART2TCPBridge.o
 .debug_str     0x00000175       0x41 build/default/production/_ext/536368125/UDP.o
 .debug_str     0x000001b6        0x0 build/default/production/_ext/536368125/UDPPerformanceTest.o
 .debug_str     0x000001b6        0x0 build/default/production/_ext/536368125/ZeroconfHelper.o
 .debug_str     0x000001b6        0x0 build/default/production/_ext/536368125/ZeroconfLinkLocal.o
 .debug_str     0x000001b6        0x0 build/default/production/_ext/536368125/ZeroconfMulticastDNS.o
 .debug_str     0x000001b6        0x0 build/default/production/_ext/1472/CustomHTTPApp.o
 .debug_str     0x000001b6        0x0 build/default/production/_ext/1472/CustomSNMPApp.o
 .debug_str     0x000001b6        0x0 build/default/production/_ext/1472/CustomSSLCert.o
 .debug_str     0x000001b6       0x1e build/default/production/_ext/1472/MainDemo.o
 .debug_str     0x000001d4        0x0 build/default/production/_ext/1472/LEDTCPServer.o
 .debug_str     0x000001d4        0x0 c:/program files/microchip/xc32/v2.41/bin/bin/../../lib/gcc/pic32mx/4.8.3/../../../../pic32mx/lib\libmchp_peripheral.a(read_core_timer_lib.o)
 .debug_str     0x000001d4        0x0 c:/program files/microchip/xc32/v2.41/bin/bin/../../lib/gcc/pic32mx/4.8.3/../../../../pic32mx/lib\libmchp_peripheral_32MX795F512L.a(eth_ack_packet_lib.o)
 .debug_str     0x000001d4        0x0 c:/program files/microchip/xc32/v2.41/bin/bin/../../lib/gcc/pic32mx/4.8.3/../../../../pic32mx/lib\libmchp_peripheral_32MX795F512L.a(eth_descriptors_add_lib.o)
 .debug_str     0x000001d4        0x0 c:/program files/microchip/xc32/v2.41/bin/bin/../../lib/gcc/pic32mx/4.8.3/../../../../pic32mx/lib\libmchp_peripheral_32MX795F512L.a(eth_init_lib.o)
 .debug_str     0x000001d4        0x0 c:/program files/microchip/xc32/v2.41/bin/bin/../../lib/gcc/pic32mx/4.8.3/../../../../pic32mx/lib\libmchp_peripheral_32MX795F512L.a(eth_mac_open_lib.o)
 .debug_str     0x000001d4        0x0 c:/program files/microchip/xc32/v2.41/bin/bin/../../lib/gcc/pic32mx/4.8.3/../../../../pic32mx/lib\libmchp_peripheral_32MX795F512L.a(eth_mac_set_address_max_lib.o)
 .debug_str     0x000001d4        0x0 c:/program files/microchip/xc32/v2.41/bin/bin/../../lib/gcc/pic32mx/4.8.3/../../../../pic32mx/lib\libmchp_peripheral_32MX795F512L.a(eth_rx_buffers_append_lib.o)
 .debug_str     0x000001d4        0x0 c:/program files/microchip/xc32/v2.41/bin/bin/../../lib/gcc/pic32mx/4.8.3/../../../../pic32mx/lib\libmchp_peripheral_32MX795F512L.a(eth_rx_filters_lib.o)
 .debug_str     0x000001d4        0x0 c:/program files/microchip/xc32/v2.41/bin/bin/../../lib/gcc/pic32mx/4.8.3/../../../../pic32mx/lib\libmchp_peripheral_32MX795F512L.a(eth_rx_get_packet_lib.o)
 .debug_str     0x000001d4        0x0 c:/program files/microchip/xc32/v2.41/bin/bin/../../lib/gcc/pic32mx/4.8.3/../../../../pic32mx/lib\libmchp_peripheral_32MX795F512L.a(eth_rx_set_buffer_size_lib.o)
 .debug_str     0x000001d4        0x0 c:/program files/microchip/xc32/v2.41/bin/bin/../../lib/gcc/pic32mx/4.8.3/../../../../pic32mx/lib\libmchp_peripheral_32MX795F512L.a(eth_tx_packet_lib.o)
 .debug_str     0x000001d4        0x0 c:/program files/microchip/xc32/v2.41/bin/bin/../../lib/gcc/pic32mx/4.8.3/../../../../pic32mx/lib\libmchp_peripheral_32MX795F512L.a(_eth_append_busy_list_lib.o)
 .debug_str     0x000001d4        0x0 c:/program files/microchip/xc32/v2.41/bin/bin/../../lib/gcc/pic32mx/4.8.3/../../../../pic32mx/lib\libmchp_peripheral_32MX795F512L.a(eth_miim_access.o)
 .debug_str     0x000001d4        0x0 c:/program files/microchip/xc32/v2.41/bin/bin/../../lib/gcc/pic32mx/4.8.3/../../../../pic32mx/lib\libmchp_peripheral_32MX795F512L.a(pcache.o)
 .debug_str     0x000001d4        0x0 c:/program files/microchip/xc32/v2.41/bin/bin/../../lib/gcc/pic32mx/4.8.3/../../../../pic32mx/lib\libmchp_peripheral_32MX795F512L.a(int_disable_interrupts_lib.o)
 .debug_str     0x000001d4        0x0 c:/program files/microchip/xc32/v2.41/bin/bin/../../lib/gcc/pic32mx/4.8.3/../../../../pic32mx/lib\libmchp_peripheral_32MX795F512L.a(int_restore_interrupts_lib.o)
 .debug_str     0x000001d4        0x0 c:/program files/microchip/xc32/v2.41/bin/bin/../../lib/gcc/pic32mx/4.8.3/../../../../pic32mx/lib\libmchp_peripheral_32MX795F512L.a(int_enable_mv_int_lib.o)
 .debug_str     0x000001d4        0x0 c:/program files/microchip/xc32/v2.41/bin/bin/../../lib/gcc/pic32mx/4.8.3/../../../../pic32mx/lib\libmchp_peripheral_32MX795F512L.a(int_tbl_lib.o)
 .debug_str     0x000001d4        0x0 c:/program files/microchip/xc32/v2.41/bin/bin/../../lib/gcc/pic32mx/4.8.3/../../../../pic32mx/lib\libmchp_peripheral_32MX795F512L.a(port_set_pins_digital_in_lib.o)
 .debug_str     0x000001d4        0x0 c:/program files/microchip/xc32/v2.41/bin/bin/../../lib/gcc/pic32mx/4.8.3/../../../../pic32mx/lib\libmchp_peripheral_32MX795F512L.a(port_set_pins_digital_out_lib.o)
 .debug_str     0x000001d4        0x0 c:/program files/microchip/xc32/v2.41/bin/bin/../../lib/gcc/pic32mx/4.8.3/../../../../pic32mx/lib\libmchp_peripheral_32MX795F512L.a(port_clear_bits_lib.o)
 .debug_str     0x000001d4        0x0 c:/program files/microchip/xc32/v2.41/bin/bin/../../lib/gcc/pic32mx/4.8.3/../../../../pic32mx/lib\libmchp_peripheral_32MX795F512L.a(port_set_bits_lib.o)
 .debug_str     0x000001d4        0x0 c:/program files/microchip/xc32/v2.41/bin/bin/../../lib/gcc/pic32mx/4.8.3/../../../../pic32mx/lib\libmchp_peripheral_32MX795F512L.a(_ports_tbl_libp.o)
 .debug_str     0x000001d4        0x0 c:/program files/microchip/xc32/v2.41/bin/bin/../../lib/gcc/pic32mx/4.8.3/../../../../pic32mx/lib\libmchp_peripheral_32MX795F512L.a(int_enable_interrupts_lib.o)
 .debug_str     0x000001d4        0x0 c:/program files/microchip/xc32/v2.41/bin/bin/../../lib/gcc/pic32mx/4.8.3\libgcc.a(_udivdi3.o)
 .debug_str     0x000001d4        0x0 c:/program files/microchip/xc32/v2.41/bin/bin/../../lib/gcc/pic32mx/4.8.3/../../../../pic32mx/lib\libpic32.a(default-bootstrap-exception-handler.o)
 .debug_str     0x000001d4        0x0 c:/program files/microchip/xc32/v2.41/bin/bin/../../lib/gcc/pic32mx/4.8.3/../../../../pic32mx/lib\libpic32.a(default-on-reset.o)
 .debug_str     0x000001d4        0x0 c:/program files/microchip/xc32/v2.41/bin/bin/../../lib/gcc/pic32mx/4.8.3/../../../../pic32mx/lib\libpic32.a(default-on-bootstrap.o)
 .debug_str     0x000001d4        0x0 c:/program files/microchip/xc32/v2.41/bin/bin/../../lib/gcc/pic32mx/4.8.3/../../../../pic32mx/lib\libpic32.a(defaultinterrupt.o)
 .debug_str     0x000001d4        0x0 c:/program files/microchip/xc32/v2.41/bin/bin/../../lib/gcc/pic32mx/4.8.3/../../../../pic32mx/lib\libc.a(calloc.o)
 .debug_str     0x000001d4        0x0 c:/program files/microchip/xc32/v2.41/bin/bin/../../lib/gcc/pic32mx/4.8.3/../../../../pic32mx/lib\libc.a(malloc.o)
 .debug_str     0x000001d4        0x0 c:/program files/microchip/xc32/v2.41/bin/bin/../../lib/gcc/pic32mx/4.8.3/../../../../pic32mx/lib\libc.a(strncpy.o)
 .debug_str     0x000001d4        0x0 c:/program files/microchip/xc32/v2.41/bin/bin/../../lib/gcc/pic32mx/4.8.3/../../../../pic32mx/lib\libpic32.a(sbrk.o)
 .debug_str     0x000001d4        0x0 c:/program files/microchip/xc32/v2.41/bin/bin/../../lib/gcc/pic32mx/4.8.3/../../../../pic32mx/lib\libpic32.a(errno.o)

.debug_loc      0x00000000      0xb0e
 *(.debug_loc)
 .debug_loc     0x00000000      0xa6a c:/program files/microchip/xc32/v2.41/bin/bin/../../lib/gcc/pic32mx/4.8.3\libgcc.a(_udivdi3.o)
 .debug_loc     0x00000a6a       0x2c c:/program files/microchip/xc32/v2.41/bin/bin/../../lib/gcc/pic32mx/4.8.3/../../../../pic32mx/lib\libpic32.a(default-bootstrap-exception-handler.o)
 .debug_loc     0x00000a96       0x78 c:/program files/microchip/xc32/v2.41/bin/bin/../../lib/gcc/pic32mx/4.8.3/../../../../pic32mx/lib\libpic32.a(sbrk.o)

.debug_macinfo
 *(.debug_macinfo)

.debug_weaknames
 *(.debug_weaknames)

.debug_funcnames
 *(.debug_funcnames)

.debug_typenames
 *(.debug_typenames)

.debug_varnames
 *(.debug_varnames)

.debug_pubtypes
 *(.debug_pubtypes)

.debug_ranges   0x00000000      0x3c0
 *(.debug_ranges)
 .debug_ranges  0x00000000       0x10 c:/program files/microchip/xc32/v2.41/bin/bin/../../lib/gcc/pic32mx/4.8.3/../../../../pic32mx/lib\libmchp_peripheral.a(read_core_timer_lib.o)
 .debug_ranges  0x00000010       0x38 c:/program files/microchip/xc32/v2.41/bin/bin/../../lib/gcc/pic32mx/4.8.3/../../../../pic32mx/lib\libmchp_peripheral_32MX795F512L.a(eth_ack_packet_lib.o)
 .debug_ranges  0x00000048       0x18 c:/program files/microchip/xc32/v2.41/bin/bin/../../lib/gcc/pic32mx/4.8.3/../../../../pic32mx/lib\libmchp_peripheral_32MX795F512L.a(eth_descriptors_add_lib.o)
 .debug_ranges  0x00000060       0x10 c:/program files/microchip/xc32/v2.41/bin/bin/../../lib/gcc/pic32mx/4.8.3/../../../../pic32mx/lib\libmchp_peripheral_32MX795F512L.a(eth_init_lib.o)
 .debug_ranges  0x00000070       0x10 c:/program files/microchip/xc32/v2.41/bin/bin/../../lib/gcc/pic32mx/4.8.3/../../../../pic32mx/lib\libmchp_peripheral_32MX795F512L.a(eth_mac_open_lib.o)
 .debug_ranges  0x00000080       0x20 c:/program files/microchip/xc32/v2.41/bin/bin/../../lib/gcc/pic32mx/4.8.3/../../../../pic32mx/lib\libmchp_peripheral_32MX795F512L.a(eth_mac_set_address_max_lib.o)
 .debug_ranges  0x000000a0       0x10 c:/program files/microchip/xc32/v2.41/bin/bin/../../lib/gcc/pic32mx/4.8.3/../../../../pic32mx/lib\libmchp_peripheral_32MX795F512L.a(eth_rx_buffers_append_lib.o)
 .debug_ranges  0x000000b0       0x38 c:/program files/microchip/xc32/v2.41/bin/bin/../../lib/gcc/pic32mx/4.8.3/../../../../pic32mx/lib\libmchp_peripheral_32MX795F512L.a(eth_rx_filters_lib.o)
 .debug_ranges  0x000000e8       0x18 c:/program files/microchip/xc32/v2.41/bin/bin/../../lib/gcc/pic32mx/4.8.3/../../../../pic32mx/lib\libmchp_peripheral_32MX795F512L.a(eth_rx_get_packet_lib.o)
 .debug_ranges  0x00000100       0x10 c:/program files/microchip/xc32/v2.41/bin/bin/../../lib/gcc/pic32mx/4.8.3/../../../../pic32mx/lib\libmchp_peripheral_32MX795F512L.a(eth_rx_set_buffer_size_lib.o)
 .debug_ranges  0x00000110       0x38 c:/program files/microchip/xc32/v2.41/bin/bin/../../lib/gcc/pic32mx/4.8.3/../../../../pic32mx/lib\libmchp_peripheral_32MX795F512L.a(eth_tx_packet_lib.o)
 .debug_ranges  0x00000148       0x10 c:/program files/microchip/xc32/v2.41/bin/bin/../../lib/gcc/pic32mx/4.8.3/../../../../pic32mx/lib\libmchp_peripheral_32MX795F512L.a(_eth_append_busy_list_lib.o)
 .debug_ranges  0x00000158       0x38 c:/program files/microchip/xc32/v2.41/bin/bin/../../lib/gcc/pic32mx/4.8.3/../../../../pic32mx/lib\libmchp_peripheral_32MX795F512L.a(eth_miim_access.o)
 .debug_ranges  0x00000190       0x18 c:/program files/microchip/xc32/v2.41/bin/bin/../../lib/gcc/pic32mx/4.8.3/../../../../pic32mx/lib\libmchp_peripheral_32MX795F512L.a(pcache.o)
 .debug_ranges  0x000001a8       0x10 c:/program files/microchip/xc32/v2.41/bin/bin/../../lib/gcc/pic32mx/4.8.3/../../../../pic32mx/lib\libmchp_peripheral_32MX795F512L.a(int_disable_interrupts_lib.o)
 .debug_ranges  0x000001b8       0x10 c:/program files/microchip/xc32/v2.41/bin/bin/../../lib/gcc/pic32mx/4.8.3/../../../../pic32mx/lib\libmchp_peripheral_32MX795F512L.a(int_restore_interrupts_lib.o)
 .debug_ranges  0x000001c8       0x10 c:/program files/microchip/xc32/v2.41/bin/bin/../../lib/gcc/pic32mx/4.8.3/../../../../pic32mx/lib\libmchp_peripheral_32MX795F512L.a(int_enable_mv_int_lib.o)
 .debug_ranges  0x000001d8       0x50 c:/program files/microchip/xc32/v2.41/bin/bin/../../lib/gcc/pic32mx/4.8.3/../../../../pic32mx/lib\libmchp_peripheral_32MX795F512L.a(int_tbl_lib.o)
 .debug_ranges  0x00000228       0x10 c:/program files/microchip/xc32/v2.41/bin/bin/../../lib/gcc/pic32mx/4.8.3/../../../../pic32mx/lib\libmchp_peripheral_32MX795F512L.a(port_set_pins_digital_in_lib.o)
 .debug_ranges  0x00000238       0x10 c:/program files/microchip/xc32/v2.41/bin/bin/../../lib/gcc/pic32mx/4.8.3/../../../../pic32mx/lib\libmchp_peripheral_32MX795F512L.a(port_set_pins_digital_out_lib.o)
 .debug_ranges  0x00000248       0x10 c:/program files/microchip/xc32/v2.41/bin/bin/../../lib/gcc/pic32mx/4.8.3/../../../../pic32mx/lib\libmchp_peripheral_32MX795F512L.a(port_clear_bits_lib.o)
 .debug_ranges  0x00000258       0x10 c:/program files/microchip/xc32/v2.41/bin/bin/../../lib/gcc/pic32mx/4.8.3/../../../../pic32mx/lib\libmchp_peripheral_32MX795F512L.a(port_set_bits_lib.o)
 .debug_ranges  0x00000268       0x10 c:/program files/microchip/xc32/v2.41/bin/bin/../../lib/gcc/pic32mx/4.8.3/../../../../pic32mx/lib\libmchp_peripheral_32MX795F512L.a(int_enable_interrupts_lib.o)
 .debug_ranges  0x00000278       0x98 c:/program files/microchip/xc32/v2.41/bin/bin/../../lib/gcc/pic32mx/4.8.3\libgcc.a(_udivdi3.o)
 .debug_ranges  0x00000310       0x10 c:/program files/microchip/xc32/v2.41/bin/bin/../../lib/gcc/pic32mx/4.8.3/../../../../pic32mx/lib\libpic32.a(default-bootstrap-exception-handler.o)
 .debug_ranges  0x00000320       0x10 c:/program files/microchip/xc32/v2.41/bin/bin/../../lib/gcc/pic32mx/4.8.3/../../../../pic32mx/lib\libpic32.a(default-on-reset.o)
 .debug_ranges  0x00000330       0x10 c:/program files/microchip/xc32/v2.41/bin/bin/../../lib/gcc/pic32mx/4.8.3/../../../../pic32mx/lib\libpic32.a(default-on-bootstrap.o)
 .debug_ranges  0x00000340       0x10 c:/program files/microchip/xc32/v2.41/bin/bin/../../lib/gcc/pic32mx/4.8.3/../../../../pic32mx/lib\libpic32.a(defaultinterrupt.o)
 .debug_ranges  0x00000350       0x10 c:/program files/microchip/xc32/v2.41/bin/bin/../../lib/gcc/pic32mx/4.8.3/../../../../pic32mx/lib\libc.a(calloc.o)
 .debug_ranges  0x00000360       0x20 c:/program files/microchip/xc32/v2.41/bin/bin/../../lib/gcc/pic32mx/4.8.3/../../../../pic32mx/lib\libc.a(malloc.o)
 .debug_ranges  0x00000380       0x10 c:/program files/microchip/xc32/v2.41/bin/bin/../../lib/gcc/pic32mx/4.8.3/../../../../pic32mx/lib\libc.a(strncpy.o)
 .debug_ranges  0x00000390       0x30 c:/program files/microchip/xc32/v2.41/bin/bin/../../lib/gcc/pic32mx/4.8.3/../../../../pic32mx/lib\libpic32.a(sbrk.o)

.gnu.attributes
                0x00000000       0x10
 *(.gnu.attributes)
 .gnu.attributes
                0x00000000       0x10 build/default/production/_ext/1472/BerkeleyTCPClientDemo.o
 .gnu.attributes
                0x00000010       0x10 build/default/production/_ext/1472/BerkeleyTCPServerDemo.o
 .gnu.attributes
                0x00000020       0x10 build/default/production/_ext/1472/BerkeleyUDPClientDemo.o
 .gnu.attributes
                0x00000030       0x10 build/default/production/_ext/1472/GenericTCPClient.o
 .gnu.attributes
                0x00000040       0x10 build/default/production/_ext/1472/GenericTCPServer.o
 .gnu.attributes
                0x00000050       0x10 build/default/production/_ext/1472/PingDemo.o
 .gnu.attributes
                0x00000060       0x10 build/default/production/_ext/1472/SMTPDemo.o
 .gnu.attributes
                0x00000070       0x10 build/default/production/_ext/1472/UARTConfig.o
 .gnu.attributes
                0x00000080       0x10 build/default/production/_ext/536368125/ARCFOUR.o
 .gnu.attributes
                0x00000090       0x10 build/default/production/_ext/536368125/ARP.o
 .gnu.attributes
                0x000000a0       0x10 build/default/production/_ext/536368125/Announce.o
 .gnu.attributes
                0x000000b0       0x10 build/default/production/_ext/536368125/AutoIP.o
 .gnu.attributes
                0x000000c0       0x10 build/default/production/_ext/536368125/BerkeleyAPI.o
 .gnu.attributes
                0x000000d0       0x10 build/default/production/_ext/536368125/BigInt.o
 .gnu.attributes
                0x000000e0       0x10 build/default/production/_ext/536368125/DHCP.o
 .gnu.attributes
                0x000000f0       0x10 build/default/production/_ext/536368125/DHCPs.o
 .gnu.attributes
                0x00000100       0x10 build/default/production/_ext/536368125/DNS.o
 .gnu.attributes
                0x00000110       0x10 build/default/production/_ext/536368125/DNSs.o
 .gnu.attributes
                0x00000120       0x10 build/default/production/_ext/536368125/Delay.o
 .gnu.attributes
                0x00000130       0x10 build/default/production/_ext/536368125/DynDNS.o
 .gnu.attributes
                0x00000140       0x10 build/default/production/_ext/536368125/ENC28J60.o
 .gnu.attributes
                0x00000150       0x10 build/default/production/_ext/536368125/ENCX24J600.o
 .gnu.attributes
                0x00000160       0x10 build/default/production/_ext/536368125/ETHPIC32ExtPhy.o
 .gnu.attributes
                0x00000170       0x10 build/default/production/_ext/536368125/ETHPIC32ExtPhySMSC8720.o
 .gnu.attributes
                0x00000180       0x10 build/default/production/_ext/536368125/ETHPIC32IntMac.o
 .gnu.attributes
                0x00000190       0x10 build/default/production/_ext/536368125/FTP.o
 .gnu.attributes
                0x000001a0       0x10 build/default/production/_ext/536368125/FileSystem.o
 .gnu.attributes
                0x000001b0       0x10 build/default/production/_ext/536368125/HTTP2.o
 .gnu.attributes
                0x000001c0       0x10 build/default/production/_ext/536368125/Hashes.o
 .gnu.attributes
                0x000001d0       0x10 build/default/production/_ext/536368125/Helpers.o
 .gnu.attributes
                0x000001e0       0x10 build/default/production/_ext/536368125/ICMP.o
 .gnu.attributes
                0x000001f0       0x10 build/default/production/_ext/536368125/IP.o
 .gnu.attributes
                0x00000200       0x10 build/default/production/_ext/536368125/LCDBlocking.o
 .gnu.attributes
                0x00000210       0x10 build/default/production/_ext/536368125/MPFS2.o
 .gnu.attributes
                0x00000220       0x10 build/default/production/_ext/536368125/NBNS.o
 .gnu.attributes
                0x00000230       0x10 build/default/production/_ext/536368125/RSA.o
 .gnu.attributes
                0x00000240       0x10 build/default/production/_ext/536368125/Random.o
 .gnu.attributes
                0x00000250       0x10 build/default/production/_ext/536368125/Reboot.o
 .gnu.attributes
                0x00000260       0x10 build/default/production/_ext/536368125/SMTP.o
 .gnu.attributes
                0x00000270       0x10 build/default/production/_ext/536368125/SNMP.o
 .gnu.attributes
                0x00000280       0x10 build/default/production/_ext/536368125/SNMPv3.o
 .gnu.attributes
                0x00000290       0x10 build/default/production/_ext/536368125/SNMPv3USM.o
 .gnu.attributes
                0x000002a0       0x10 build/default/production/_ext/536368125/SNTP.o
 .gnu.attributes
                0x000002b0       0x10 build/default/production/_ext/536368125/SPIEEPROM.o
 .gnu.attributes
                0x000002c0       0x10 build/default/production/_ext/536368125/SPIFlash.o
 .gnu.attributes
                0x000002d0       0x10 build/default/production/_ext/536368125/SPIRAM.o
 .gnu.attributes
                0x000002e0       0x10 build/default/production/_ext/536368125/SSL.o
 .gnu.attributes
                0x000002f0       0x10 build/default/production/_ext/536368125/StackTsk.o
 .gnu.attributes
                0x00000300       0x10 build/default/production/_ext/536368125/TCP.o
 .gnu.attributes
                0x00000310       0x10 build/default/production/_ext/536368125/TCPPerformanceTest.o
 .gnu.attributes
                0x00000320       0x10 build/default/production/_ext/536368125/TFTPc.o
 .gnu.attributes
                0x00000330       0x10 build/default/production/_ext/536368125/Telnet.o
 .gnu.attributes
                0x00000340       0x10 build/default/production/_ext/536368125/Tick.o
 .gnu.attributes
                0x00000350       0x10 build/default/production/_ext/536368125/UART.o
 .gnu.attributes
                0x00000360       0x10 build/default/production/_ext/536368125/UART2TCPBridge.o
 .gnu.attributes
                0x00000370       0x10 build/default/production/_ext/536368125/UDP.o
 .gnu.attributes
                0x00000380       0x10 build/default/production/_ext/536368125/UDPPerformanceTest.o
 .gnu.attributes
                0x00000390       0x10 build/default/production/_ext/536368125/ZeroconfHelper.o
 .gnu.attributes
                0x000003a0       0x10 build/default/production/_ext/536368125/ZeroconfLinkLocal.o
 .gnu.attributes
                0x000003b0       0x10 build/default/production/_ext/536368125/ZeroconfMulticastDNS.o
 .gnu.attributes
                0x000003c0       0x10 build/default/production/_ext/1472/CustomHTTPApp.o
 .gnu.attributes
                0x000003d0       0x10 build/default/production/_ext/1472/CustomSNMPApp.o
 .gnu.attributes
                0x000003e0       0x10 build/default/production/_ext/1472/CustomSSLCert.o
 .gnu.attributes
                0x000003f0       0x10 build/default/production/_ext/1472/MainDemo.o
 .gnu.attributes
                0x00000400       0x10 build/default/production/_ext/1472/LEDTCPServer.o
 .gnu.attributes
                0x00000410       0x10 c:/program files/microchip/xc32/v2.41/bin/bin/../../lib/gcc/pic32mx/4.8.3/../../../../pic32mx/lib\libmchp_peripheral.a(read_core_timer_lib.o)
 .gnu.attributes
                0x00000420       0x10 c:/program files/microchip/xc32/v2.41/bin/bin/../../lib/gcc/pic32mx/4.8.3/../../../../pic32mx/lib\libmchp_peripheral_32MX795F512L.a(eth_ack_packet_lib.o)
 .gnu.attributes
                0x00000430       0x10 c:/program files/microchip/xc32/v2.41/bin/bin/../../lib/gcc/pic32mx/4.8.3/../../../../pic32mx/lib\libmchp_peripheral_32MX795F512L.a(eth_descriptors_add_lib.o)
 .gnu.attributes
                0x00000440       0x10 c:/program files/microchip/xc32/v2.41/bin/bin/../../lib/gcc/pic32mx/4.8.3/../../../../pic32mx/lib\libmchp_peripheral_32MX795F512L.a(eth_init_lib.o)
 .gnu.attributes
                0x00000450       0x10 c:/program files/microchip/xc32/v2.41/bin/bin/../../lib/gcc/pic32mx/4.8.3/../../../../pic32mx/lib\libmchp_peripheral_32MX795F512L.a(eth_mac_open_lib.o)
 .gnu.attributes
                0x00000460       0x10 c:/program files/microchip/xc32/v2.41/bin/bin/../../lib/gcc/pic32mx/4.8.3/../../../../pic32mx/lib\libmchp_peripheral_32MX795F512L.a(eth_mac_set_address_max_lib.o)
 .gnu.attributes
                0x00000470       0x10 c:/program files/microchip/xc32/v2.41/bin/bin/../../lib/gcc/pic32mx/4.8.3/../../../../pic32mx/lib\libmchp_peripheral_32MX795F512L.a(eth_rx_buffers_append_lib.o)
 .gnu.attributes
                0x00000480       0x10 c:/program files/microchip/xc32/v2.41/bin/bin/../../lib/gcc/pic32mx/4.8.3/../../../../pic32mx/lib\libmchp_peripheral_32MX795F512L.a(eth_rx_filters_lib.o)
 .gnu.attributes
                0x00000490       0x10 c:/program files/microchip/xc32/v2.41/bin/bin/../../lib/gcc/pic32mx/4.8.3/../../../../pic32mx/lib\libmchp_peripheral_32MX795F512L.a(eth_rx_get_packet_lib.o)
 .gnu.attributes
                0x000004a0       0x10 c:/program files/microchip/xc32/v2.41/bin/bin/../../lib/gcc/pic32mx/4.8.3/../../../../pic32mx/lib\libmchp_peripheral_32MX795F512L.a(eth_rx_set_buffer_size_lib.o)
 .gnu.attributes
                0x000004b0       0x10 c:/program files/microchip/xc32/v2.41/bin/bin/../../lib/gcc/pic32mx/4.8.3/../../../../pic32mx/lib\libmchp_peripheral_32MX795F512L.a(eth_tx_packet_lib.o)
 .gnu.attributes
                0x000004c0       0x10 c:/program files/microchip/xc32/v2.41/bin/bin/../../lib/gcc/pic32mx/4.8.3/../../../../pic32mx/lib\libmchp_peripheral_32MX795F512L.a(_eth_append_busy_list_lib.o)
 .gnu.attributes
                0x000004d0       0x10 c:/program files/microchip/xc32/v2.41/bin/bin/../../lib/gcc/pic32mx/4.8.3/../../../../pic32mx/lib\libmchp_peripheral_32MX795F512L.a(eth_miim_access.o)
 .gnu.attributes
                0x000004e0       0x10 c:/program files/microchip/xc32/v2.41/bin/bin/../../lib/gcc/pic32mx/4.8.3/../../../../pic32mx/lib\libmchp_peripheral_32MX795F512L.a(pcache.o)
 .gnu.attributes
                0x000004f0       0x10 c:/program files/microchip/xc32/v2.41/bin/bin/../../lib/gcc/pic32mx/4.8.3/../../../../pic32mx/lib\libmchp_peripheral_32MX795F512L.a(int_disable_interrupts_lib.o)
 .gnu.attributes
                0x00000500       0x10 c:/program files/microchip/xc32/v2.41/bin/bin/../../lib/gcc/pic32mx/4.8.3/../../../../pic32mx/lib\libmchp_peripheral_32MX795F512L.a(int_restore_interrupts_lib.o)
 .gnu.attributes
                0x00000510       0x10 c:/program files/microchip/xc32/v2.41/bin/bin/../../lib/gcc/pic32mx/4.8.3/../../../../pic32mx/lib\libmchp_peripheral_32MX795F512L.a(int_enable_mv_int_lib.o)
 .gnu.attributes
                0x00000520       0x10 c:/program files/microchip/xc32/v2.41/bin/bin/../../lib/gcc/pic32mx/4.8.3/../../../../pic32mx/lib\libmchp_peripheral_32MX795F512L.a(int_tbl_lib.o)
 .gnu.attributes
                0x00000530       0x10 c:/program files/microchip/xc32/v2.41/bin/bin/../../lib/gcc/pic32mx/4.8.3/../../../../pic32mx/lib\libmchp_peripheral_32MX795F512L.a(port_set_pins_digital_in_lib.o)
 .gnu.attributes
                0x00000540       0x10 c:/program files/microchip/xc32/v2.41/bin/bin/../../lib/gcc/pic32mx/4.8.3/../../../../pic32mx/lib\libmchp_peripheral_32MX795F512L.a(port_set_pins_digital_out_lib.o)
 .gnu.attributes
                0x00000550       0x10 c:/program files/microchip/xc32/v2.41/bin/bin/../../lib/gcc/pic32mx/4.8.3/../../../../pic32mx/lib\libmchp_peripheral_32MX795F512L.a(port_clear_bits_lib.o)
 .gnu.attributes
                0x00000560       0x10 c:/program files/microchip/xc32/v2.41/bin/bin/../../lib/gcc/pic32mx/4.8.3/../../../../pic32mx/lib\libmchp_peripheral_32MX795F512L.a(port_set_bits_lib.o)
 .gnu.attributes
                0x00000570       0x10 c:/program files/microchip/xc32/v2.41/bin/bin/../../lib/gcc/pic32mx/4.8.3/../../../../pic32mx/lib\libmchp_peripheral_32MX795F512L.a(_ports_tbl_libp.o)
 .gnu.attributes
                0x00000580       0x10 c:/program files/microchip/xc32/v2.41/bin/bin/../../lib/gcc/pic32mx/4.8.3/../../../../pic32mx/lib\libmchp_peripheral_32MX795F512L.a(int_enable_interrupts_lib.o)
 .gnu.attributes
                0x00000590       0x10 c:/program files/microchip/xc32/v2.41/bin/bin/../../lib/gcc/pic32mx/4.8.3\libgcc.a(_udivdi3.o)
 .gnu.attributes
                0x000005a0       0x10 c:/program files/microchip/xc32/v2.41/bin/bin/../../lib/gcc/pic32mx/4.8.3/../../../../pic32mx/lib\libpic32.a(default-bootstrap-exception-handler.o)
 .gnu.attributes
                0x000005b0       0x10 c:/program files/microchip/xc32/v2.41/bin/bin/../../lib/gcc/pic32mx/4.8.3/../../../../pic32mx/lib\libpic32.a(default-on-reset.o)
 .gnu.attributes
                0x000005c0       0x10 c:/program files/microchip/xc32/v2.41/bin/bin/../../lib/gcc/pic32mx/4.8.3/../../../../pic32mx/lib\libpic32.a(default-on-bootstrap.o)
 .gnu.attributes
                0x000005d0       0x10 c:/program files/microchip/xc32/v2.41/bin/bin/../../lib/gcc/pic32mx/4.8.3/../../../../pic32mx/lib\libpic32.a(defaultinterrupt.o)
 .gnu.attributes
                0x000005e0       0x10 c:/program files/microchip/xc32/v2.41/bin/bin/../../lib/gcc/pic32mx/4.8.3/../../../../pic32mx/lib\libc.a(calloc.o)
 .gnu.attributes
                0x000005f0       0x10 c:/program files/microchip/xc32/v2.41/bin/bin/../../lib/gcc/pic32mx/4.8.3/../../../../pic32mx/lib\libc.a(malloc.o)
 .gnu.attributes
                0x00000600       0x10 c:/program files/microchip/xc32/v2.41/bin/bin/../../lib/gcc/pic32mx/4.8.3/../../../../pic32mx/lib\libc.a(strncpy.o)
 .gnu.attributes
                0x00000610       0x10 c:/program files/microchip/xc32/v2.41/bin/bin/../../lib/gcc/pic32mx/4.8.3/../../../../pic32mx/lib\libpic32.a(sbrk.o)
 .gnu.attributes
                0x00000620       0x10 c:/program files/microchip/xc32/v2.41/bin/bin/../../lib/gcc/pic32mx/4.8.3/../../../../pic32mx/lib\libpic32.a(errno.o)
LOAD c:/program files/microchip/xc32/v2.41/bin/bin/../../lib/gcc/pic32mx/4.8.3\libgcc.a
START GROUP
LOAD c:/program files/microchip/xc32/v2.41/bin/bin/../../lib/gcc/pic32mx/4.8.3/../../../../pic32mx/lib\libpic32.a
LOAD c:/program files/microchip/xc32/v2.41/bin/bin/../../lib/gcc/pic32mx/4.8.3/../../../../pic32mx/lib\libdebug.a
LOAD c:/program files/microchip/xc32/v2.41/bin/bin/../../lib/gcc/pic32mx/4.8.3/../../../../pic32mx/lib\libpic32.a
LOAD c:/program files/microchip/xc32/v2.41/bin/bin/../../lib/gcc/pic32mx/4.8.3/../../../../pic32mx/lib\libc.a
LOAD c:/program files/microchip/xc32/v2.41/bin/bin/../../lib/gcc/pic32mx/4.8.3/../../../../pic32mx/lib\libc.a
LOAD c:/program files/microchip/xc32/v2.41/bin/bin/../../lib/gcc/pic32mx/4.8.3/../../../../pic32mx/lib\libm.a
LOAD c:/program files/microchip/xc32/v2.41/bin/bin/../../lib/gcc/pic32mx/4.8.3/../../../../pic32mx/lib\libe.a
LOAD c:/program files/microchip/xc32/v2.41/bin/bin/../../lib/gcc/pic32mx/4.8.3/../../../../pic32mx/lib\libdsp.a
LOAD c:/program files/microchip/xc32/v2.41/bin/bin/../../lib/gcc/pic32mx/4.8.3\libgcc.a
LOAD c:/program files/microchip/xc32/v2.41/bin/bin/../../lib/gcc/pic32mx/4.8.3/../../../../pic32mx/lib\libpic32.a
END GROUP
LOAD c:/program files/microchip/xc32/v2.41/bin/bin/../../lib/gcc/pic32mx/4.8.3\libgcc.a
OUTPUT(dist/default/production/LEDServer.X.production.elf elf32-tradlittlemips)
LOAD stack
LOAD data_init

.reginfo        0x00000000       0x18
 .reginfo       0x00000000       0x18 c:/program files/microchip/xc32/v2.41/bin/bin/../../lib/gcc/pic32mx/4.8.3/../../../../pic32mx/lib\debug-exception-return.o

.stack          0xa000b220      0x800
 .stack         0xa000b220      0x800 stack

.bss            0xa0000214     0x70d0
 .bss           0xa0000214     0x3be0 build/default/production/_ext/536368125/ETHPIC32IntMac.o
 .bss           0xa0003df4     0x34f0 build/default/production/_ext/536368125/TCP.o

.bss            0xa00072e4       0x44
 .bss           0xa00072e4       0x24 c:/program files/microchip/xc32/v2.41/bin/bin/../../lib/gcc/pic32mx/4.8.3/../../../../pic32mx/lib\libpic32.a(sbrk.o)
                0xa0007300                _maxbrk
                0xa0007304                _minbrk
 .bss           0xa0007308       0x20 c:/program files/microchip/xc32/v2.41/bin/bin/../../lib/gcc/pic32mx/4.8.3/../../../../pic32mx/lib\libmchp_peripheral_32MX795F512L.a(eth_descriptors_add_lib.o)
                0xa0007308                _EthTxFreeList
                0xa0007310                _EthTxBusyList
                0xa0007318                _EthRxFreeList
                0xa0007320                _EthRxBusyList

.bss            0xa0007328       0x38
 .bss           0xa0007328       0x20 c:/program files/microchip/xc32/v2.41/bin/bin/../../lib/gcc/pic32mx/4.8.3/../../../../pic32mx/lib\libc.a(malloc.o)
                0xa0007328                __allocx
                0xa0007330                __alloct
                0xa0007334                __allocp
                0xa0007338                __allocs
 .bss           0xa0007348       0x18 build/default/production/_ext/536368125/ARP.o

.data           0xa0007360       0x10
 .data          0xa0007360       0x10 build/default/production/_ext/1472/GenericTCPClient.o

.bss            0xa0007370        0xc
 .bss           0xa0007370        0xc build/default/production/_ext/536368125/DNS.o

.bss.errno      0xa000737c        0x4
 .bss.errno     0xa000737c        0x4 c:/program files/microchip/xc32/v2.41/bin/bin/../../lib/gcc/pic32mx/4.8.3/../../../../pic32mx/lib\libpic32.a(errno.o)
                0xa000737c                errno

.bss%z1         0x00000000        0x0
 .bss           0x00000000        0x0 c:/program files/microchip/xc32/v2.41/bin/bin/../../lib/gcc/pic32mx/4.8.3/../../../../pic32mx/lib\libpic32.a(errno.o)

.data%z2        0x00000000        0x0
 .data          0x00000000        0x0 c:/program files/microchip/xc32/v2.41/bin/bin/../../lib/gcc/pic32mx/4.8.3/../../../../pic32mx/lib\libpic32.a(errno.o)

.data%z3        0x00000000        0x0
 .data          0x00000000        0x0 c:/program files/microchip/xc32/v2.41/bin/bin/../../lib/gcc/pic32mx/4.8.3/../../../../pic32mx/lib\libpic32.a(sbrk.o)

.bss%z4         0x00000000        0x0
 .bss           0x00000000        0x0 c:/program files/microchip/xc32/v2.41/bin/bin/../../lib/gcc/pic32mx/4.8.3/../../../../pic32mx/lib\libc.a(strncpy.o)

.data%z5        0x00000000        0x0
 .data          0x00000000        0x0 c:/program files/microchip/xc32/v2.41/bin/bin/../../lib/gcc/pic32mx/4.8.3/../../../../pic32mx/lib\libc.a(strncpy.o)

.data%z6        0x00000000        0x0
 .data          0x00000000        0x0 c:/program files/microchip/xc32/v2.41/bin/bin/../../lib/gcc/pic32mx/4.8.3/../../../../pic32mx/lib\libc.a(malloc.o)

.bss%z7         0x00000000        0x0
 .bss           0x00000000        0x0 c:/program files/microchip/xc32/v2.41/bin/bin/../../lib/gcc/pic32mx/4.8.3/../../../../pic32mx/lib\libc.a(calloc.o)

.data%z8        0x00000000        0x0
 .data          0x00000000        0x0 c:/program files/microchip/xc32/v2.41/bin/bin/../../lib/gcc/pic32mx/4.8.3/../../../../pic32mx/lib\libc.a(calloc.o)

.bss%z9         0x00000000        0x0
 .bss           0x00000000        0x0 c:/program files/microchip/xc32/v2.41/bin/bin/../../lib/gcc/pic32mx/4.8.3/../../../../pic32mx/lib\libpic32.a(defaultinterrupt.o)

.data%z10       0x00000000        0x0
 .data          0x00000000        0x0 c:/program files/microchip/xc32/v2.41/bin/bin/../../lib/gcc/pic32mx/4.8.3/../../../../pic32mx/lib\libpic32.a(defaultinterrupt.o)

.bss%z11        0x00000000        0x0
 .bss           0x00000000        0x0 c:/program files/microchip/xc32/v2.41/bin/bin/../../lib/gcc/pic32mx/4.8.3/../../../../pic32mx/lib\libpic32.a(vector51.o)

.data%z12       0x00000000        0x0
 .data          0x00000000        0x0 c:/program files/microchip/xc32/v2.41/bin/bin/../../lib/gcc/pic32mx/4.8.3/../../../../pic32mx/lib\libpic32.a(vector51.o)

.bss%z13        0x00000000        0x0
 .bss           0x00000000        0x0 c:/program files/microchip/xc32/v2.41/bin/bin/../../lib/gcc/pic32mx/4.8.3/../../../../pic32mx/lib\libpic32.a(vector50.o)

.data%z14       0x00000000        0x0
 .data          0x00000000        0x0 c:/program files/microchip/xc32/v2.41/bin/bin/../../lib/gcc/pic32mx/4.8.3/../../../../pic32mx/lib\libpic32.a(vector50.o)

.bss%z15        0x00000000        0x0
 .bss           0x00000000        0x0 c:/program files/microchip/xc32/v2.41/bin/bin/../../lib/gcc/pic32mx/4.8.3/../../../../pic32mx/lib\libpic32.a(vector49.o)

.data%z16       0x00000000        0x0
 .data          0x00000000        0x0 c:/program files/microchip/xc32/v2.41/bin/bin/../../lib/gcc/pic32mx/4.8.3/../../../../pic32mx/lib\libpic32.a(vector49.o)

.bss%z17        0x00000000        0x0
 .bss           0x00000000        0x0 c:/program files/microchip/xc32/v2.41/bin/bin/../../lib/gcc/pic32mx/4.8.3/../../../../pic32mx/lib\libpic32.a(vector48.o)

.data%z18       0x00000000        0x0
 .data          0x00000000        0x0 c:/program files/microchip/xc32/v2.41/bin/bin/../../lib/gcc/pic32mx/4.8.3/../../../../pic32mx/lib\libpic32.a(vector48.o)

.bss%z19        0x00000000        0x0
 .bss           0x00000000        0x0 c:/program files/microchip/xc32/v2.41/bin/bin/../../lib/gcc/pic32mx/4.8.3/../../../../pic32mx/lib\libpic32.a(vector47.o)

.data%z20       0x00000000        0x0
 .data          0x00000000        0x0 c:/program files/microchip/xc32/v2.41/bin/bin/../../lib/gcc/pic32mx/4.8.3/../../../../pic32mx/lib\libpic32.a(vector47.o)

.bss%z21        0x00000000        0x0
 .bss           0x00000000        0x0 c:/program files/microchip/xc32/v2.41/bin/bin/../../lib/gcc/pic32mx/4.8.3/../../../../pic32mx/lib\libpic32.a(vector46.o)

.data%z22       0x00000000        0x0
 .data          0x00000000        0x0 c:/program files/microchip/xc32/v2.41/bin/bin/../../lib/gcc/pic32mx/4.8.3/../../../../pic32mx/lib\libpic32.a(vector46.o)

.bss%z23        0x00000000        0x0
 .bss           0x00000000        0x0 c:/program files/microchip/xc32/v2.41/bin/bin/../../lib/gcc/pic32mx/4.8.3/../../../../pic32mx/lib\libpic32.a(vector45.o)

.data%z24       0x00000000        0x0
 .data          0x00000000        0x0 c:/program files/microchip/xc32/v2.41/bin/bin/../../lib/gcc/pic32mx/4.8.3/../../../../pic32mx/lib\libpic32.a(vector45.o)

.bss%z25        0x00000000        0x0
 .bss           0x00000000        0x0 c:/program files/microchip/xc32/v2.41/bin/bin/../../lib/gcc/pic32mx/4.8.3/../../../../pic32mx/lib\libpic32.a(vector44.o)

.data%z26       0x00000000        0x0
 .data          0x00000000        0x0 c:/program files/microchip/xc32/v2.41/bin/bin/../../lib/gcc/pic32mx/4.8.3/../../../../pic32mx/lib\libpic32.a(vector44.o)

.bss%z27        0x00000000        0x0
 .bss           0x00000000        0x0 c:/program files/microchip/xc32/v2.41/bin/bin/../../lib/gcc/pic32mx/4.8.3/../../../../pic32mx/lib\libpic32.a(vector43.o)

.data%z28       0x00000000        0x0
 .data          0x00000000        0x0 c:/program files/microchip/xc32/v2.41/bin/bin/../../lib/gcc/pic32mx/4.8.3/../../../../pic32mx/lib\libpic32.a(vector43.o)

.bss%z29        0x00000000        0x0
 .bss           0x00000000        0x0 c:/program files/microchip/xc32/v2.41/bin/bin/../../lib/gcc/pic32mx/4.8.3/../../../../pic32mx/lib\libpic32.a(vector42.o)

.data%z30       0x00000000        0x0
 .data          0x00000000        0x0 c:/program files/microchip/xc32/v2.41/bin/bin/../../lib/gcc/pic32mx/4.8.3/../../../../pic32mx/lib\libpic32.a(vector42.o)

.bss%z31        0x00000000        0x0
 .bss           0x00000000        0x0 c:/program files/microchip/xc32/v2.41/bin/bin/../../lib/gcc/pic32mx/4.8.3/../../../../pic32mx/lib\libpic32.a(vector41.o)

.data%z32       0x00000000        0x0
 .data          0x00000000        0x0 c:/program files/microchip/xc32/v2.41/bin/bin/../../lib/gcc/pic32mx/4.8.3/../../../../pic32mx/lib\libpic32.a(vector41.o)

.bss%z33        0x00000000        0x0
 .bss           0x00000000        0x0 c:/program files/microchip/xc32/v2.41/bin/bin/../../lib/gcc/pic32mx/4.8.3/../../../../pic32mx/lib\libpic32.a(vector40.o)

.data%z34       0x00000000        0x0
 .data          0x00000000        0x0 c:/program files/microchip/xc32/v2.41/bin/bin/../../lib/gcc/pic32mx/4.8.3/../../../../pic32mx/lib\libpic32.a(vector40.o)

.bss%z35        0x00000000        0x0
 .bss           0x00000000        0x0 c:/program files/microchip/xc32/v2.41/bin/bin/../../lib/gcc/pic32mx/4.8.3/../../../../pic32mx/lib\libpic32.a(vector39.o)

.data%z36       0x00000000        0x0
 .data          0x00000000        0x0 c:/program files/microchip/xc32/v2.41/bin/bin/../../lib/gcc/pic32mx/4.8.3/../../../../pic32mx/lib\libpic32.a(vector39.o)

.bss%z37        0x00000000        0x0
 .bss           0x00000000        0x0 c:/program files/microchip/xc32/v2.41/bin/bin/../../lib/gcc/pic32mx/4.8.3/../../../../pic32mx/lib\libpic32.a(vector38.o)

.data%z38       0x00000000        0x0
 .data          0x00000000        0x0 c:/program files/microchip/xc32/v2.41/bin/bin/../../lib/gcc/pic32mx/4.8.3/../../../../pic32mx/lib\libpic32.a(vector38.o)

.bss%z39        0x00000000        0x0
 .bss           0x00000000        0x0 c:/program files/microchip/xc32/v2.41/bin/bin/../../lib/gcc/pic32mx/4.8.3/../../../../pic32mx/lib\libpic32.a(vector37.o)

.data%z40       0x00000000        0x0
 .data          0x00000000        0x0 c:/program files/microchip/xc32/v2.41/bin/bin/../../lib/gcc/pic32mx/4.8.3/../../../../pic32mx/lib\libpic32.a(vector37.o)

.bss%z41        0x00000000        0x0
 .bss           0x00000000        0x0 c:/program files/microchip/xc32/v2.41/bin/bin/../../lib/gcc/pic32mx/4.8.3/../../../../pic32mx/lib\libpic32.a(vector36.o)

.data%z42       0x00000000        0x0
 .data          0x00000000        0x0 c:/program files/microchip/xc32/v2.41/bin/bin/../../lib/gcc/pic32mx/4.8.3/../../../../pic32mx/lib\libpic32.a(vector36.o)

.bss%z43        0x00000000        0x0
 .bss           0x00000000        0x0 c:/program files/microchip/xc32/v2.41/bin/bin/../../lib/gcc/pic32mx/4.8.3/../../../../pic32mx/lib\libpic32.a(vector35.o)

.data%z44       0x00000000        0x0
 .data          0x00000000        0x0 c:/program files/microchip/xc32/v2.41/bin/bin/../../lib/gcc/pic32mx/4.8.3/../../../../pic32mx/lib\libpic32.a(vector35.o)

.bss%z45        0x00000000        0x0
 .bss           0x00000000        0x0 c:/program files/microchip/xc32/v2.41/bin/bin/../../lib/gcc/pic32mx/4.8.3/../../../../pic32mx/lib\libpic32.a(vector34.o)

.data%z46       0x00000000        0x0
 .data          0x00000000        0x0 c:/program files/microchip/xc32/v2.41/bin/bin/../../lib/gcc/pic32mx/4.8.3/../../../../pic32mx/lib\libpic32.a(vector34.o)

.bss%z47        0x00000000        0x0
 .bss           0x00000000        0x0 c:/program files/microchip/xc32/v2.41/bin/bin/../../lib/gcc/pic32mx/4.8.3/../../../../pic32mx/lib\libpic32.a(vector33.o)

.data%z48       0x00000000        0x0
 .data          0x00000000        0x0 c:/program files/microchip/xc32/v2.41/bin/bin/../../lib/gcc/pic32mx/4.8.3/../../../../pic32mx/lib\libpic32.a(vector33.o)

.bss%z49        0x00000000        0x0
 .bss           0x00000000        0x0 c:/program files/microchip/xc32/v2.41/bin/bin/../../lib/gcc/pic32mx/4.8.3/../../../../pic32mx/lib\libpic32.a(vector32.o)

.data%z50       0x00000000        0x0
 .data          0x00000000        0x0 c:/program files/microchip/xc32/v2.41/bin/bin/../../lib/gcc/pic32mx/4.8.3/../../../../pic32mx/lib\libpic32.a(vector32.o)

.bss%z51        0x00000000        0x0
 .bss           0x00000000        0x0 c:/program files/microchip/xc32/v2.41/bin/bin/../../lib/gcc/pic32mx/4.8.3/../../../../pic32mx/lib\libpic32.a(vector31.o)

.data%z52       0x00000000        0x0
 .data          0x00000000        0x0 c:/program files/microchip/xc32/v2.41/bin/bin/../../lib/gcc/pic32mx/4.8.3/../../../../pic32mx/lib\libpic32.a(vector31.o)

.bss%z53        0x00000000        0x0
 .bss           0x00000000        0x0 c:/program files/microchip/xc32/v2.41/bin/bin/../../lib/gcc/pic32mx/4.8.3/../../../../pic32mx/lib\libpic32.a(vector30.o)

.data%z54       0x00000000        0x0
 .data          0x00000000        0x0 c:/program files/microchip/xc32/v2.41/bin/bin/../../lib/gcc/pic32mx/4.8.3/../../../../pic32mx/lib\libpic32.a(vector30.o)

.bss%z55        0x00000000        0x0
 .bss           0x00000000        0x0 c:/program files/microchip/xc32/v2.41/bin/bin/../../lib/gcc/pic32mx/4.8.3/../../../../pic32mx/lib\libpic32.a(vector29.o)

.data%z56       0x00000000        0x0
 .data          0x00000000        0x0 c:/program files/microchip/xc32/v2.41/bin/bin/../../lib/gcc/pic32mx/4.8.3/../../../../pic32mx/lib\libpic32.a(vector29.o)

.bss%z57        0x00000000        0x0
 .bss           0x00000000        0x0 c:/program files/microchip/xc32/v2.41/bin/bin/../../lib/gcc/pic32mx/4.8.3/../../../../pic32mx/lib\libpic32.a(vector28.o)

.data%z58       0x00000000        0x0
 .data          0x00000000        0x0 c:/program files/microchip/xc32/v2.41/bin/bin/../../lib/gcc/pic32mx/4.8.3/../../../../pic32mx/lib\libpic32.a(vector28.o)

.bss%z59        0x00000000        0x0
 .bss           0x00000000        0x0 c:/program files/microchip/xc32/v2.41/bin/bin/../../lib/gcc/pic32mx/4.8.3/../../../../pic32mx/lib\libpic32.a(vector27.o)

.data%z60       0x00000000        0x0
 .data          0x00000000        0x0 c:/program files/microchip/xc32/v2.41/bin/bin/../../lib/gcc/pic32mx/4.8.3/../../../../pic32mx/lib\libpic32.a(vector27.o)

.bss%z61        0x00000000        0x0
 .bss           0x00000000        0x0 c:/program files/microchip/xc32/v2.41/bin/bin/../../lib/gcc/pic32mx/4.8.3/../../../../pic32mx/lib\libpic32.a(vector26.o)

.data%z62       0x00000000        0x0
 .data          0x00000000        0x0 c:/program files/microchip/xc32/v2.41/bin/bin/../../lib/gcc/pic32mx/4.8.3/../../../../pic32mx/lib\libpic32.a(vector26.o)

.bss%z63        0x00000000        0x0
 .bss           0x00000000        0x0 c:/program files/microchip/xc32/v2.41/bin/bin/../../lib/gcc/pic32mx/4.8.3/../../../../pic32mx/lib\libpic32.a(vector25.o)

.data%z64       0x00000000        0x0
 .data          0x00000000        0x0 c:/program files/microchip/xc32/v2.41/bin/bin/../../lib/gcc/pic32mx/4.8.3/../../../../pic32mx/lib\libpic32.a(vector25.o)

.bss%z65        0x00000000        0x0
 .bss           0x00000000        0x0 c:/program files/microchip/xc32/v2.41/bin/bin/../../lib/gcc/pic32mx/4.8.3/../../../../pic32mx/lib\libpic32.a(vector24.o)

.data%z66       0x00000000        0x0
 .data          0x00000000        0x0 c:/program files/microchip/xc32/v2.41/bin/bin/../../lib/gcc/pic32mx/4.8.3/../../../../pic32mx/lib\libpic32.a(vector24.o)

.bss%z67        0x00000000        0x0
 .bss           0x00000000        0x0 c:/program files/microchip/xc32/v2.41/bin/bin/../../lib/gcc/pic32mx/4.8.3/../../../../pic32mx/lib\libpic32.a(vector23.o)

.data%z68       0x00000000        0x0
 .data          0x00000000        0x0 c:/program files/microchip/xc32/v2.41/bin/bin/../../lib/gcc/pic32mx/4.8.3/../../../../pic32mx/lib\libpic32.a(vector23.o)

.bss%z69        0x00000000        0x0
 .bss           0x00000000        0x0 c:/program files/microchip/xc32/v2.41/bin/bin/../../lib/gcc/pic32mx/4.8.3/../../../../pic32mx/lib\libpic32.a(vector22.o)

.data%z70       0x00000000        0x0
 .data          0x00000000        0x0 c:/program files/microchip/xc32/v2.41/bin/bin/../../lib/gcc/pic32mx/4.8.3/../../../../pic32mx/lib\libpic32.a(vector22.o)

.bss%z71        0x00000000        0x0
 .bss           0x00000000        0x0 c:/program files/microchip/xc32/v2.41/bin/bin/../../lib/gcc/pic32mx/4.8.3/../../../../pic32mx/lib\libpic32.a(vector21.o)

.data%z72       0x00000000        0x0
 .data          0x00000000        0x0 c:/program files/microchip/xc32/v2.41/bin/bin/../../lib/gcc/pic32mx/4.8.3/../../../../pic32mx/lib\libpic32.a(vector21.o)

.bss%z73        0x00000000        0x0
 .bss           0x00000000        0x0 c:/program files/microchip/xc32/v2.41/bin/bin/../../lib/gcc/pic32mx/4.8.3/../../../../pic32mx/lib\libpic32.a(vector20.o)

.data%z74       0x00000000        0x0
 .data          0x00000000        0x0 c:/program files/microchip/xc32/v2.41/bin/bin/../../lib/gcc/pic32mx/4.8.3/../../../../pic32mx/lib\libpic32.a(vector20.o)

.bss%z75        0x00000000        0x0
 .bss           0x00000000        0x0 c:/program files/microchip/xc32/v2.41/bin/bin/../../lib/gcc/pic32mx/4.8.3/../../../../pic32mx/lib\libpic32.a(vector19.o)

.data%z76       0x00000000        0x0
 .data          0x00000000        0x0 c:/program files/microchip/xc32/v2.41/bin/bin/../../lib/gcc/pic32mx/4.8.3/../../../../pic32mx/lib\libpic32.a(vector19.o)

.bss%z77        0x00000000        0x0
 .bss           0x00000000        0x0 c:/program files/microchip/xc32/v2.41/bin/bin/../../lib/gcc/pic32mx/4.8.3/../../../../pic32mx/lib\libpic32.a(vector18.o)

.data%z78       0x00000000        0x0
 .data          0x00000000        0x0 c:/program files/microchip/xc32/v2.41/bin/bin/../../lib/gcc/pic32mx/4.8.3/../../../../pic32mx/lib\libpic32.a(vector18.o)

.bss%z79        0x00000000        0x0
 .bss           0x00000000        0x0 c:/program files/microchip/xc32/v2.41/bin/bin/../../lib/gcc/pic32mx/4.8.3/../../../../pic32mx/lib\libpic32.a(vector17.o)

.data%z80       0x00000000        0x0
 .data          0x00000000        0x0 c:/program files/microchip/xc32/v2.41/bin/bin/../../lib/gcc/pic32mx/4.8.3/../../../../pic32mx/lib\libpic32.a(vector17.o)

.bss%z81        0x00000000        0x0
 .bss           0x00000000        0x0 c:/program files/microchip/xc32/v2.41/bin/bin/../../lib/gcc/pic32mx/4.8.3/../../../../pic32mx/lib\libpic32.a(vector16.o)

.data%z82       0x00000000        0x0
 .data          0x00000000        0x0 c:/program files/microchip/xc32/v2.41/bin/bin/../../lib/gcc/pic32mx/4.8.3/../../../../pic32mx/lib\libpic32.a(vector16.o)

.bss%z83        0x00000000        0x0
 .bss           0x00000000        0x0 c:/program files/microchip/xc32/v2.41/bin/bin/../../lib/gcc/pic32mx/4.8.3/../../../../pic32mx/lib\libpic32.a(vector15.o)

.data%z84       0x00000000        0x0
 .data          0x00000000        0x0 c:/program files/microchip/xc32/v2.41/bin/bin/../../lib/gcc/pic32mx/4.8.3/../../../../pic32mx/lib\libpic32.a(vector15.o)

.bss%z85        0x00000000        0x0
 .bss           0x00000000        0x0 c:/program files/microchip/xc32/v2.41/bin/bin/../../lib/gcc/pic32mx/4.8.3/../../../../pic32mx/lib\libpic32.a(vector14.o)

.data%z86       0x00000000        0x0
 .data          0x00000000        0x0 c:/program files/microchip/xc32/v2.41/bin/bin/../../lib/gcc/pic32mx/4.8.3/../../../../pic32mx/lib\libpic32.a(vector14.o)

.bss%z87        0x00000000        0x0
 .bss           0x00000000        0x0 c:/program files/microchip/xc32/v2.41/bin/bin/../../lib/gcc/pic32mx/4.8.3/../../../../pic32mx/lib\libpic32.a(vector13.o)

.data%z88       0x00000000        0x0
 .data          0x00000000        0x0 c:/program files/microchip/xc32/v2.41/bin/bin/../../lib/gcc/pic32mx/4.8.3/../../../../pic32mx/lib\libpic32.a(vector13.o)

.bss%z89        0x00000000        0x0
 .bss           0x00000000        0x0 c:/program files/microchip/xc32/v2.41/bin/bin/../../lib/gcc/pic32mx/4.8.3/../../../../pic32mx/lib\libpic32.a(vector12.o)

.data%z90       0x00000000        0x0
 .data          0x00000000        0x0 c:/program files/microchip/xc32/v2.41/bin/bin/../../lib/gcc/pic32mx/4.8.3/../../../../pic32mx/lib\libpic32.a(vector12.o)

.bss%z91        0x00000000        0x0
 .bss           0x00000000        0x0 c:/program files/microchip/xc32/v2.41/bin/bin/../../lib/gcc/pic32mx/4.8.3/../../../../pic32mx/lib\libpic32.a(vector11.o)

.data%z92       0x00000000        0x0
 .data          0x00000000        0x0 c:/program files/microchip/xc32/v2.41/bin/bin/../../lib/gcc/pic32mx/4.8.3/../../../../pic32mx/lib\libpic32.a(vector11.o)

.bss%z93        0x00000000        0x0
 .bss           0x00000000        0x0 c:/program files/microchip/xc32/v2.41/bin/bin/../../lib/gcc/pic32mx/4.8.3/../../../../pic32mx/lib\libpic32.a(vector10.o)

.data%z94       0x00000000        0x0
 .data          0x00000000        0x0 c:/program files/microchip/xc32/v2.41/bin/bin/../../lib/gcc/pic32mx/4.8.3/../../../../pic32mx/lib\libpic32.a(vector10.o)

.bss%z95        0x00000000        0x0
 .bss           0x00000000        0x0 c:/program files/microchip/xc32/v2.41/bin/bin/../../lib/gcc/pic32mx/4.8.3/../../../../pic32mx/lib\libpic32.a(vector9.o)

.data%z96       0x00000000        0x0
 .data          0x00000000        0x0 c:/program files/microchip/xc32/v2.41/bin/bin/../../lib/gcc/pic32mx/4.8.3/../../../../pic32mx/lib\libpic32.a(vector9.o)

.bss%z97        0x00000000        0x0
 .bss           0x00000000        0x0 c:/program files/microchip/xc32/v2.41/bin/bin/../../lib/gcc/pic32mx/4.8.3/../../../../pic32mx/lib\libpic32.a(vector8.o)

.data%z98       0x00000000        0x0
 .data          0x00000000        0x0 c:/program files/microchip/xc32/v2.41/bin/bin/../../lib/gcc/pic32mx/4.8.3/../../../../pic32mx/lib\libpic32.a(vector8.o)

.bss%z99        0x00000000        0x0
 .bss           0x00000000        0x0 c:/program files/microchip/xc32/v2.41/bin/bin/../../lib/gcc/pic32mx/4.8.3/../../../../pic32mx/lib\libpic32.a(vector7.o)

.data%z100      0x00000000        0x0
 .data          0x00000000        0x0 c:/program files/microchip/xc32/v2.41/bin/bin/../../lib/gcc/pic32mx/4.8.3/../../../../pic32mx/lib\libpic32.a(vector7.o)

.bss%z101       0x00000000        0x0
 .bss           0x00000000        0x0 c:/program files/microchip/xc32/v2.41/bin/bin/../../lib/gcc/pic32mx/4.8.3/../../../../pic32mx/lib\libpic32.a(vector6.o)

.data%z102      0x00000000        0x0
 .data          0x00000000        0x0 c:/program files/microchip/xc32/v2.41/bin/bin/../../lib/gcc/pic32mx/4.8.3/../../../../pic32mx/lib\libpic32.a(vector6.o)

.bss%z103       0x00000000        0x0
 .bss           0x00000000        0x0 c:/program files/microchip/xc32/v2.41/bin/bin/../../lib/gcc/pic32mx/4.8.3/../../../../pic32mx/lib\libpic32.a(vector5.o)

.data%z104      0x00000000        0x0
 .data          0x00000000        0x0 c:/program files/microchip/xc32/v2.41/bin/bin/../../lib/gcc/pic32mx/4.8.3/../../../../pic32mx/lib\libpic32.a(vector5.o)

.bss%z105       0x00000000        0x0
 .bss           0x00000000        0x0 c:/program files/microchip/xc32/v2.41/bin/bin/../../lib/gcc/pic32mx/4.8.3/../../../../pic32mx/lib\libpic32.a(vector3.o)

.data%z106      0x00000000        0x0
 .data          0x00000000        0x0 c:/program files/microchip/xc32/v2.41/bin/bin/../../lib/gcc/pic32mx/4.8.3/../../../../pic32mx/lib\libpic32.a(vector3.o)

.bss%z107       0x00000000        0x0
 .bss           0x00000000        0x0 c:/program files/microchip/xc32/v2.41/bin/bin/../../lib/gcc/pic32mx/4.8.3/../../../../pic32mx/lib\libpic32.a(vector2.o)

.data%z108      0x00000000        0x0
 .data          0x00000000        0x0 c:/program files/microchip/xc32/v2.41/bin/bin/../../lib/gcc/pic32mx/4.8.3/../../../../pic32mx/lib\libpic32.a(vector2.o)

.bss%z109       0x00000000        0x0
 .bss           0x00000000        0x0 c:/program files/microchip/xc32/v2.41/bin/bin/../../lib/gcc/pic32mx/4.8.3/../../../../pic32mx/lib\libpic32.a(vector1.o)

.data%z110      0x00000000        0x0
 .data          0x00000000        0x0 c:/program files/microchip/xc32/v2.41/bin/bin/../../lib/gcc/pic32mx/4.8.3/../../../../pic32mx/lib\libpic32.a(vector1.o)

.bss%z111       0x00000000        0x0
 .bss           0x00000000        0x0 c:/program files/microchip/xc32/v2.41/bin/bin/../../lib/gcc/pic32mx/4.8.3/../../../../pic32mx/lib\libpic32.a(vector0.o)

.data%z112      0x00000000        0x0
 .data          0x00000000        0x0 c:/program files/microchip/xc32/v2.41/bin/bin/../../lib/gcc/pic32mx/4.8.3/../../../../pic32mx/lib\libpic32.a(vector0.o)

.bss%z113       0x00000000        0x0
 .bss           0x00000000        0x0 c:/program files/microchip/xc32/v2.41/bin/bin/../../lib/gcc/pic32mx/4.8.3/../../../../pic32mx/lib\libpic32.a(general-exception.o)

.data%z114      0x00000000        0x0
 .data          0x00000000        0x0 c:/program files/microchip/xc32/v2.41/bin/bin/../../lib/gcc/pic32mx/4.8.3/../../../../pic32mx/lib\libpic32.a(general-exception.o)

.bss%z115       0x00000000        0x0
 .bss           0x00000000        0x0 c:/program files/microchip/xc32/v2.41/bin/bin/../../lib/gcc/pic32mx/4.8.3/../../../../pic32mx/lib\libpic32.a(pic32_data_init.o)

.data%z116      0x00000000        0x0
 .data          0x00000000        0x0 c:/program files/microchip/xc32/v2.41/bin/bin/../../lib/gcc/pic32mx/4.8.3/../../../../pic32mx/lib\libpic32.a(pic32_data_init.o)

.bss%z117       0x00000000        0x0
 .bss           0x00000000        0x0 c:/program files/microchip/xc32/v2.41/bin/bin/../../lib/gcc/pic32mx/4.8.3/../../../../pic32mx/lib\libpic32.a(default-nmi-handler.o)

.data%z118      0x00000000        0x0
 .data          0x00000000        0x0 c:/program files/microchip/xc32/v2.41/bin/bin/../../lib/gcc/pic32mx/4.8.3/../../../../pic32mx/lib\libpic32.a(default-nmi-handler.o)

.bss%z119       0x00000000        0x0
 .bss           0x00000000        0x0 c:/program files/microchip/xc32/v2.41/bin/bin/../../lib/gcc/pic32mx/4.8.3/../../../../pic32mx/lib\libpic32.a(default-on-bootstrap.o)

.data%z120      0x00000000        0x0
 .data          0x00000000        0x0 c:/program files/microchip/xc32/v2.41/bin/bin/../../lib/gcc/pic32mx/4.8.3/../../../../pic32mx/lib\libpic32.a(default-on-bootstrap.o)

.bss%z121       0x00000000        0x0
 .bss           0x00000000        0x0 c:/program files/microchip/xc32/v2.41/bin/bin/../../lib/gcc/pic32mx/4.8.3/../../../../pic32mx/lib\libpic32.a(default-on-reset.o)

.data%z122      0x00000000        0x0
 .data          0x00000000        0x0 c:/program files/microchip/xc32/v2.41/bin/bin/../../lib/gcc/pic32mx/4.8.3/../../../../pic32mx/lib\libpic32.a(default-on-reset.o)

.bss%z123       0x00000000        0x0
 .bss           0x00000000        0x0 c:/program files/microchip/xc32/v2.41/bin/bin/../../lib/gcc/pic32mx/4.8.3/../../../../pic32mx/lib\libpic32.a(default-bootstrap-exception-handler.o)

.data%z124      0x00000000        0x0
 .data          0x00000000        0x0 c:/program files/microchip/xc32/v2.41/bin/bin/../../lib/gcc/pic32mx/4.8.3/../../../../pic32mx/lib\libpic32.a(default-bootstrap-exception-handler.o)

.bss%z125       0x00000000        0x0
 .bss           0x00000000        0x0 c:/program files/microchip/xc32/v2.41/bin/bin/../../lib/gcc/pic32mx/4.8.3/../../../../pic32mx/lib\libpic32.a(strlen.o)

.data%z126      0x00000000        0x0
 .data          0x00000000        0x0 c:/program files/microchip/xc32/v2.41/bin/bin/../../lib/gcc/pic32mx/4.8.3/../../../../pic32mx/lib\libpic32.a(strlen.o)

.bss%z127       0x00000000        0x0
 .bss           0x00000000        0x0 c:/program files/microchip/xc32/v2.41/bin/bin/../../lib/gcc/pic32mx/4.8.3/../../../../pic32mx/lib\libpic32.a(memset.o)

.data%z128      0x00000000        0x0
 .data          0x00000000        0x0 c:/program files/microchip/xc32/v2.41/bin/bin/../../lib/gcc/pic32mx/4.8.3/../../../../pic32mx/lib\libpic32.a(memset.o)

.bss%z129       0x00000000        0x0
 .bss           0x00000000        0x0 c:/program files/microchip/xc32/v2.41/bin/bin/../../lib/gcc/pic32mx/4.8.3/../../../../pic32mx/lib\libpic32.a(memcpy.o)

.data%z130      0x00000000        0x0
 .data          0x00000000        0x0 c:/program files/microchip/xc32/v2.41/bin/bin/../../lib/gcc/pic32mx/4.8.3/../../../../pic32mx/lib\libpic32.a(memcpy.o)

.bss%z131       0x00000000        0x0
 .bss           0x00000000        0x0 c:/program files/microchip/xc32/v2.41/bin/bin/../../lib/gcc/pic32mx/4.8.3/../../../../pic32mx/lib\libpic32.a(memcmp.o)

.data%z132      0x00000000        0x0
 .data          0x00000000        0x0 c:/program files/microchip/xc32/v2.41/bin/bin/../../lib/gcc/pic32mx/4.8.3/../../../../pic32mx/lib\libpic32.a(memcmp.o)

.bss%z133       0x00000000        0x0
 .bss           0x00000000        0x0 c:/program files/microchip/xc32/v2.41/bin/bin/../../lib/gcc/pic32mx/4.8.3\libgcc.a(_udivdi3.o)

.data%z134      0x00000000        0x0
 .data          0x00000000        0x0 c:/program files/microchip/xc32/v2.41/bin/bin/../../lib/gcc/pic32mx/4.8.3\libgcc.a(_udivdi3.o)

.bss%z135       0x00000000        0x0
 .bss           0x00000000        0x0 c:/program files/microchip/xc32/v2.41/bin/bin/../../lib/gcc/pic32mx/4.8.3/../../../../pic32mx/lib\libmchp_peripheral_32MX795F512L.a(int_enable_interrupts_lib.o)

.data%z136      0x00000000        0x0
 .data          0x00000000        0x0 c:/program files/microchip/xc32/v2.41/bin/bin/../../lib/gcc/pic32mx/4.8.3/../../../../pic32mx/lib\libmchp_peripheral_32MX795F512L.a(int_enable_interrupts_lib.o)

.bss%z137       0x00000000        0x0
 .bss           0x00000000        0x0 c:/program files/microchip/xc32/v2.41/bin/bin/../../lib/gcc/pic32mx/4.8.3/../../../../pic32mx/lib\libmchp_peripheral_32MX795F512L.a(_ports_tbl_libp.o)

.data%z138      0x00000000        0x0
 .data          0x00000000        0x0 c:/program files/microchip/xc32/v2.41/bin/bin/../../lib/gcc/pic32mx/4.8.3/../../../../pic32mx/lib\libmchp_peripheral_32MX795F512L.a(_ports_tbl_libp.o)

.bss%z139       0x00000000        0x0
 .bss           0x00000000        0x0 c:/program files/microchip/xc32/v2.41/bin/bin/../../lib/gcc/pic32mx/4.8.3/../../../../pic32mx/lib\libmchp_peripheral_32MX795F512L.a(port_set_bits_lib.o)

.data%z140      0x00000000        0x0
 .data          0x00000000        0x0 c:/program files/microchip/xc32/v2.41/bin/bin/../../lib/gcc/pic32mx/4.8.3/../../../../pic32mx/lib\libmchp_peripheral_32MX795F512L.a(port_set_bits_lib.o)

.bss%z141       0x00000000        0x0
 .bss           0x00000000        0x0 c:/program files/microchip/xc32/v2.41/bin/bin/../../lib/gcc/pic32mx/4.8.3/../../../../pic32mx/lib\libmchp_peripheral_32MX795F512L.a(port_clear_bits_lib.o)

.data%z142      0x00000000        0x0
 .data          0x00000000        0x0 c:/program files/microchip/xc32/v2.41/bin/bin/../../lib/gcc/pic32mx/4.8.3/../../../../pic32mx/lib\libmchp_peripheral_32MX795F512L.a(port_clear_bits_lib.o)

.bss%z143       0x00000000        0x0
 .bss           0x00000000        0x0 c:/program files/microchip/xc32/v2.41/bin/bin/../../lib/gcc/pic32mx/4.8.3/../../../../pic32mx/lib\libmchp_peripheral_32MX795F512L.a(port_set_pins_digital_out_lib.o)

.data%z144      0x00000000        0x0
 .data          0x00000000        0x0 c:/program files/microchip/xc32/v2.41/bin/bin/../../lib/gcc/pic32mx/4.8.3/../../../../pic32mx/lib\libmchp_peripheral_32MX795F512L.a(port_set_pins_digital_out_lib.o)

.bss%z145       0x00000000        0x0
 .bss           0x00000000        0x0 c:/program files/microchip/xc32/v2.41/bin/bin/../../lib/gcc/pic32mx/4.8.3/../../../../pic32mx/lib\libmchp_peripheral_32MX795F512L.a(port_set_pins_digital_in_lib.o)

.data%z146      0x00000000        0x0
 .data          0x00000000        0x0 c:/program files/microchip/xc32/v2.41/bin/bin/../../lib/gcc/pic32mx/4.8.3/../../../../pic32mx/lib\libmchp_peripheral_32MX795F512L.a(port_set_pins_digital_in_lib.o)

.bss%z147       0x00000000        0x0
 .bss           0x00000000        0x0 c:/program files/microchip/xc32/v2.41/bin/bin/../../lib/gcc/pic32mx/4.8.3/../../../../pic32mx/lib\libmchp_peripheral_32MX795F512L.a(int_tbl_lib.o)

.data%z148      0x00000000        0x0
 .data          0x00000000        0x0 c:/program files/microchip/xc32/v2.41/bin/bin/../../lib/gcc/pic32mx/4.8.3/../../../../pic32mx/lib\libmchp_peripheral_32MX795F512L.a(int_tbl_lib.o)

.bss%z149       0x00000000        0x0
 .bss           0x00000000        0x0 c:/program files/microchip/xc32/v2.41/bin/bin/../../lib/gcc/pic32mx/4.8.3/../../../../pic32mx/lib\libmchp_peripheral_32MX795F512L.a(int_enable_mv_int_lib.o)

.data%z150      0x00000000        0x0
 .data          0x00000000        0x0 c:/program files/microchip/xc32/v2.41/bin/bin/../../lib/gcc/pic32mx/4.8.3/../../../../pic32mx/lib\libmchp_peripheral_32MX795F512L.a(int_enable_mv_int_lib.o)

.bss%z151       0x00000000        0x0
 .bss           0x00000000        0x0 c:/program files/microchip/xc32/v2.41/bin/bin/../../lib/gcc/pic32mx/4.8.3/../../../../pic32mx/lib\libmchp_peripheral_32MX795F512L.a(int_restore_interrupts_lib.o)

.data%z152      0x00000000        0x0
 .data          0x00000000        0x0 c:/program files/microchip/xc32/v2.41/bin/bin/../../lib/gcc/pic32mx/4.8.3/../../../../pic32mx/lib\libmchp_peripheral_32MX795F512L.a(int_restore_interrupts_lib.o)

.bss%z153       0x00000000        0x0
 .bss           0x00000000        0x0 c:/program files/microchip/xc32/v2.41/bin/bin/../../lib/gcc/pic32mx/4.8.3/../../../../pic32mx/lib\libmchp_peripheral_32MX795F512L.a(int_disable_interrupts_lib.o)

.data%z154      0x00000000        0x0
 .data          0x00000000        0x0 c:/program files/microchip/xc32/v2.41/bin/bin/../../lib/gcc/pic32mx/4.8.3/../../../../pic32mx/lib\libmchp_peripheral_32MX795F512L.a(int_disable_interrupts_lib.o)

.bss%z155       0x00000000        0x0
 .bss           0x00000000        0x0 c:/program files/microchip/xc32/v2.41/bin/bin/../../lib/gcc/pic32mx/4.8.3/../../../../pic32mx/lib\libmchp_peripheral_32MX795F512L.a(pcache.o)

.data%z156      0x00000000        0x0
 .data          0x00000000        0x0 c:/program files/microchip/xc32/v2.41/bin/bin/../../lib/gcc/pic32mx/4.8.3/../../../../pic32mx/lib\libmchp_peripheral_32MX795F512L.a(pcache.o)

.bss%z157       0x00000000        0x0
 .bss           0x00000000        0x0 c:/program files/microchip/xc32/v2.41/bin/bin/../../lib/gcc/pic32mx/4.8.3/../../../../pic32mx/lib\libmchp_peripheral_32MX795F512L.a(eth_miim_access.o)

.data%z158      0x00000000        0x0
 .data          0x00000000        0x0 c:/program files/microchip/xc32/v2.41/bin/bin/../../lib/gcc/pic32mx/4.8.3/../../../../pic32mx/lib\libmchp_peripheral_32MX795F512L.a(eth_miim_access.o)

.bss%z159       0x00000000        0x0
 .bss           0x00000000        0x0 c:/program files/microchip/xc32/v2.41/bin/bin/../../lib/gcc/pic32mx/4.8.3/../../../../pic32mx/lib\libmchp_peripheral_32MX795F512L.a(_eth_append_busy_list_lib.o)

.data%z160      0x00000000        0x0
 .data          0x00000000        0x0 c:/program files/microchip/xc32/v2.41/bin/bin/../../lib/gcc/pic32mx/4.8.3/../../../../pic32mx/lib\libmchp_peripheral_32MX795F512L.a(_eth_append_busy_list_lib.o)

.bss%z161       0x00000000        0x0
 .bss           0x00000000        0x0 c:/program files/microchip/xc32/v2.41/bin/bin/../../lib/gcc/pic32mx/4.8.3/../../../../pic32mx/lib\libmchp_peripheral_32MX795F512L.a(eth_tx_packet_lib.o)

.data%z162      0x00000000        0x0
 .data          0x00000000        0x0 c:/program files/microchip/xc32/v2.41/bin/bin/../../lib/gcc/pic32mx/4.8.3/../../../../pic32mx/lib\libmchp_peripheral_32MX795F512L.a(eth_tx_packet_lib.o)

.bss%z163       0x00000000        0x0
 .bss           0x00000000        0x0 c:/program files/microchip/xc32/v2.41/bin/bin/../../lib/gcc/pic32mx/4.8.3/../../../../pic32mx/lib\libmchp_peripheral_32MX795F512L.a(eth_rx_set_buffer_size_lib.o)

.data%z164      0x00000000        0x0
 .data          0x00000000        0x0 c:/program files/microchip/xc32/v2.41/bin/bin/../../lib/gcc/pic32mx/4.8.3/../../../../pic32mx/lib\libmchp_peripheral_32MX795F512L.a(eth_rx_set_buffer_size_lib.o)

.bss%z165       0x00000000        0x0
 .bss           0x00000000        0x0 c:/program files/microchip/xc32/v2.41/bin/bin/../../lib/gcc/pic32mx/4.8.3/../../../../pic32mx/lib\libmchp_peripheral_32MX795F512L.a(eth_rx_get_packet_lib.o)

.data%z166      0x00000000        0x0
 .data          0x00000000        0x0 c:/program files/microchip/xc32/v2.41/bin/bin/../../lib/gcc/pic32mx/4.8.3/../../../../pic32mx/lib\libmchp_peripheral_32MX795F512L.a(eth_rx_get_packet_lib.o)

.bss%z167       0x00000000        0x0
 .bss           0x00000000        0x0 c:/program files/microchip/xc32/v2.41/bin/bin/../../lib/gcc/pic32mx/4.8.3/../../../../pic32mx/lib\libmchp_peripheral_32MX795F512L.a(eth_rx_filters_lib.o)

.data%z168      0x00000000        0x0
 .data          0x00000000        0x0 c:/program files/microchip/xc32/v2.41/bin/bin/../../lib/gcc/pic32mx/4.8.3/../../../../pic32mx/lib\libmchp_peripheral_32MX795F512L.a(eth_rx_filters_lib.o)

.bss%z169       0x00000000        0x0
 .bss           0x00000000        0x0 c:/program files/microchip/xc32/v2.41/bin/bin/../../lib/gcc/pic32mx/4.8.3/../../../../pic32mx/lib\libmchp_peripheral_32MX795F512L.a(eth_rx_buffers_append_lib.o)

.data%z170      0x00000000        0x0
 .data          0x00000000        0x0 c:/program files/microchip/xc32/v2.41/bin/bin/../../lib/gcc/pic32mx/4.8.3/../../../../pic32mx/lib\libmchp_peripheral_32MX795F512L.a(eth_rx_buffers_append_lib.o)

.bss%z171       0x00000000        0x0
 .bss           0x00000000        0x0 c:/program files/microchip/xc32/v2.41/bin/bin/../../lib/gcc/pic32mx/4.8.3/../../../../pic32mx/lib\libmchp_peripheral_32MX795F512L.a(eth_mac_set_address_max_lib.o)

.data%z172      0x00000000        0x0
 .data          0x00000000        0x0 c:/program files/microchip/xc32/v2.41/bin/bin/../../lib/gcc/pic32mx/4.8.3/../../../../pic32mx/lib\libmchp_peripheral_32MX795F512L.a(eth_mac_set_address_max_lib.o)

.bss%z173       0x00000000        0x0
 .bss           0x00000000        0x0 c:/program files/microchip/xc32/v2.41/bin/bin/../../lib/gcc/pic32mx/4.8.3/../../../../pic32mx/lib\libmchp_peripheral_32MX795F512L.a(eth_mac_open_lib.o)

.data%z174      0x00000000        0x0
 .data          0x00000000        0x0 c:/program files/microchip/xc32/v2.41/bin/bin/../../lib/gcc/pic32mx/4.8.3/../../../../pic32mx/lib\libmchp_peripheral_32MX795F512L.a(eth_mac_open_lib.o)

.bss%z175       0x00000000        0x0
 .bss           0x00000000        0x0 c:/program files/microchip/xc32/v2.41/bin/bin/../../lib/gcc/pic32mx/4.8.3/../../../../pic32mx/lib\libmchp_peripheral_32MX795F512L.a(eth_init_lib.o)

.data%z176      0x00000000        0x0
 .data          0x00000000        0x0 c:/program files/microchip/xc32/v2.41/bin/bin/../../lib/gcc/pic32mx/4.8.3/../../../../pic32mx/lib\libmchp_peripheral_32MX795F512L.a(eth_init_lib.o)

.data%z177      0x00000000        0x0
 .data          0x00000000        0x0 c:/program files/microchip/xc32/v2.41/bin/bin/../../lib/gcc/pic32mx/4.8.3/../../../../pic32mx/lib\libmchp_peripheral_32MX795F512L.a(eth_descriptors_add_lib.o)

.bss%z178       0x00000000        0x0
 .bss           0x00000000        0x0 c:/program files/microchip/xc32/v2.41/bin/bin/../../lib/gcc/pic32mx/4.8.3/../../../../pic32mx/lib\libmchp_peripheral_32MX795F512L.a(eth_ack_packet_lib.o)

.data%z179      0x00000000        0x0
 .data          0x00000000        0x0 c:/program files/microchip/xc32/v2.41/bin/bin/../../lib/gcc/pic32mx/4.8.3/../../../../pic32mx/lib\libmchp_peripheral_32MX795F512L.a(eth_ack_packet_lib.o)

.bss%z180       0x00000000        0x0
 .bss           0x00000000        0x0 c:/program files/microchip/xc32/v2.41/bin/bin/../../lib/gcc/pic32mx/4.8.3/../../../../pic32mx/lib\libmchp_peripheral.a(read_core_timer_lib.o)

.data%z181      0x00000000        0x0
 .data          0x00000000        0x0 c:/program files/microchip/xc32/v2.41/bin/bin/../../lib/gcc/pic32mx/4.8.3/../../../../pic32mx/lib\libmchp_peripheral.a(read_core_timer_lib.o)

.bss%z182       0x00000000        0x0
 .bss           0x00000000        0x0 c:/program files/microchip/xc32/v2.41/bin/bin/../../lib/gcc/pic32mx/4.8.3/../../../../pic32mx/lib/./proc/32MX795F512L\processor.o

.data%z183      0x00000000        0x0
 .data          0x00000000        0x0 c:/program files/microchip/xc32/v2.41/bin/bin/../../lib/gcc/pic32mx/4.8.3/../../../../pic32mx/lib/./proc/32MX795F512L\processor.o

.bss%z184       0x00000000        0x0
 .bss           0x00000000        0x0 c:/program files/microchip/xc32/v2.41/bin/bin/../../lib/gcc/pic32mx/4.8.3/../../../../pic32mx/lib\pic32_software_reset.o

.data%z185      0x00000000        0x0
 .data          0x00000000        0x0 c:/program files/microchip/xc32/v2.41/bin/bin/../../lib/gcc/pic32mx/4.8.3/../../../../pic32mx/lib\pic32_software_reset.o

.bss%z186       0x00000000        0x0
 .bss           0x00000000        0x0 C:\Users\kamer\AppData\Local\Temp\ccmieHzo.o

.data%z187      0x00000000        0x0
 .data          0x00000000        0x0 C:\Users\kamer\AppData\Local\Temp\ccmieHzo.o

.bss%z188       0x00000000        0x0
 .bss           0x00000000        0x0 C:\Users\kamer\AppData\Local\Temp\ccWP2f57.o

.data%z189      0x00000000        0x0
 .data          0x00000000        0x0 C:\Users\kamer\AppData\Local\Temp\ccWP2f57.o

.bss%z190       0x00000000        0x0
 .bss           0x00000000        0x0 C:\Users\kamer\AppData\Local\Temp\ccD0dtMf.o

.data%z191      0x00000000        0x0
 .data          0x00000000        0x0 C:\Users\kamer\AppData\Local\Temp\ccD0dtMf.o

.bss%z192       0x00000000        0x0
 .bss           0x00000000        0x0 build/default/production/_ext/1472/LEDTCPServer.o

.data%z193      0x00000000        0x0
 .data          0x00000000        0x0 build/default/production/_ext/1472/LEDTCPServer.o

.bss%z194       0x00000000        0x0
 .bss           0x00000000        0x0 build/default/production/_ext/1472/MainDemo.o

.data%z195      0x00000000        0x0
 .data          0x00000000        0x0 build/default/production/_ext/1472/MainDemo.o

.bss%z196       0x00000000        0x0
 .bss           0x00000000        0x0 build/default/production/_ext/1472/CustomSSLCert.o

.data%z197      0x00000000        0x0
 .data          0x00000000        0x0 build/default/production/_ext/1472/CustomSSLCert.o

.bss%z198       0x00000000        0x0
 .bss           0x00000000        0x0 build/default/production/_ext/1472/CustomSNMPApp.o

.data%z199      0x00000000        0x0
 .data          0x00000000        0x0 build/default/production/_ext/1472/CustomSNMPApp.o

.bss%z200       0x00000000        0x0
 .bss           0x00000000        0x0 build/default/production/_ext/1472/CustomHTTPApp.o

.data%z201      0x00000000        0x0
 .data          0x00000000        0x0 build/default/production/_ext/1472/CustomHTTPApp.o

.bss%z202       0x00000000        0x0
 .bss           0x00000000        0x0 build/default/production/_ext/536368125/ZeroconfMulticastDNS.o

.data%z203      0x00000000        0x0
 .data          0x00000000        0x0 build/default/production/_ext/536368125/ZeroconfMulticastDNS.o

.bss%z204       0x00000000        0x0
 .bss           0x00000000        0x0 build/default/production/_ext/536368125/ZeroconfLinkLocal.o

.data%z205      0x00000000        0x0
 .data          0x00000000        0x0 build/default/production/_ext/536368125/ZeroconfLinkLocal.o

.bss%z206       0x00000000        0x0
 .bss           0x00000000        0x0 build/default/production/_ext/536368125/ZeroconfHelper.o

.data%z207      0x00000000        0x0
 .data          0x00000000        0x0 build/default/production/_ext/536368125/ZeroconfHelper.o

.bss%z208       0x00000000        0x0
 .bss           0x00000000        0x0 build/default/production/_ext/536368125/UDPPerformanceTest.o

.data%z209      0x00000000        0x0
 .data          0x00000000        0x0 build/default/production/_ext/536368125/UDPPerformanceTest.o

.bss%z210       0x00000000        0x0
 .bss           0x00000000        0x0 build/default/production/_ext/536368125/UDP.o

.data%z211      0x00000000        0x0
 .data          0x00000000        0x0 build/default/production/_ext/536368125/UDP.o

.bss%z212       0x00000000        0x0
 .bss           0x00000000        0x0 build/default/production/_ext/536368125/UART2TCPBridge.o

.data%z213      0x00000000        0x0
 .data          0x00000000        0x0 build/default/production/_ext/536368125/UART2TCPBridge.o

.bss%z214       0x00000000        0x0
 .bss           0x00000000        0x0 build/default/production/_ext/536368125/UART.o

.data%z215      0x00000000        0x0
 .data          0x00000000        0x0 build/default/production/_ext/536368125/UART.o

.bss%z216       0x00000000        0x0
 .bss           0x00000000        0x0 build/default/production/_ext/536368125/Tick.o

.data%z217      0x00000000        0x0
 .data          0x00000000        0x0 build/default/production/_ext/536368125/Tick.o

.bss%z218       0x00000000        0x0
 .bss           0x00000000        0x0 build/default/production/_ext/536368125/Telnet.o

.data%z219      0x00000000        0x0
 .data          0x00000000        0x0 build/default/production/_ext/536368125/Telnet.o

.bss%z220       0x00000000        0x0
 .bss           0x00000000        0x0 build/default/production/_ext/536368125/TFTPc.o

.data%z221      0x00000000        0x0
 .data          0x00000000        0x0 build/default/production/_ext/536368125/TFTPc.o

.bss%z222       0x00000000        0x0
 .bss           0x00000000        0x0 build/default/production/_ext/536368125/TCPPerformanceTest.o

.data%z223      0x00000000        0x0
 .data          0x00000000        0x0 build/default/production/_ext/536368125/TCPPerformanceTest.o

.data%z224      0x00000000        0x0
 .data          0x00000000        0x0 build/default/production/_ext/536368125/TCP.o

.bss%z225       0x00000000        0x0
 .bss           0x00000000        0x0 build/default/production/_ext/536368125/StackTsk.o

.data%z226      0x00000000        0x0
 .data          0x00000000        0x0 build/default/production/_ext/536368125/StackTsk.o

.bss%z227       0x00000000        0x0
 .bss           0x00000000        0x0 build/default/production/_ext/536368125/SSL.o

.data%z228      0x00000000        0x0
 .data          0x00000000        0x0 build/default/production/_ext/536368125/SSL.o

.bss%z229       0x00000000        0x0
 .bss           0x00000000        0x0 build/default/production/_ext/536368125/SPIRAM.o

.data%z230      0x00000000        0x0
 .data          0x00000000        0x0 build/default/production/_ext/536368125/SPIRAM.o

.bss%z231       0x00000000        0x0
 .bss           0x00000000        0x0 build/default/production/_ext/536368125/SPIFlash.o

.data%z232      0x00000000        0x0
 .data          0x00000000        0x0 build/default/production/_ext/536368125/SPIFlash.o

.bss%z233       0x00000000        0x0
 .bss           0x00000000        0x0 build/default/production/_ext/536368125/SPIEEPROM.o

.data%z234      0x00000000        0x0
 .data          0x00000000        0x0 build/default/production/_ext/536368125/SPIEEPROM.o

.bss%z235       0x00000000        0x0
 .bss           0x00000000        0x0 build/default/production/_ext/536368125/SNTP.o

.data%z236      0x00000000        0x0
 .data          0x00000000        0x0 build/default/production/_ext/536368125/SNTP.o

.bss%z237       0x00000000        0x0
 .bss           0x00000000        0x0 build/default/production/_ext/536368125/SNMPv3USM.o

.data%z238      0x00000000        0x0
 .data          0x00000000        0x0 build/default/production/_ext/536368125/SNMPv3USM.o

.bss%z239       0x00000000        0x0
 .bss           0x00000000        0x0 build/default/production/_ext/536368125/SNMPv3.o

.data%z240      0x00000000        0x0
 .data          0x00000000        0x0 build/default/production/_ext/536368125/SNMPv3.o

.bss%z241       0x00000000        0x0
 .bss           0x00000000        0x0 build/default/production/_ext/536368125/SNMP.o

.data%z242      0x00000000        0x0
 .data          0x00000000        0x0 build/default/production/_ext/536368125/SNMP.o

.bss%z243       0x00000000        0x0
 .bss           0x00000000        0x0 build/default/production/_ext/536368125/SMTP.o

.data%z244      0x00000000        0x0
 .data          0x00000000        0x0 build/default/production/_ext/536368125/SMTP.o

.bss%z245       0x00000000        0x0
 .bss           0x00000000        0x0 build/default/production/_ext/536368125/Reboot.o

.data%z246      0x00000000        0x0
 .data          0x00000000        0x0 build/default/production/_ext/536368125/Reboot.o

.bss%z247       0x00000000        0x0
 .bss           0x00000000        0x0 build/default/production/_ext/536368125/Random.o

.data%z248      0x00000000        0x0
 .data          0x00000000        0x0 build/default/production/_ext/536368125/Random.o

.bss%z249       0x00000000        0x0
 .bss           0x00000000        0x0 build/default/production/_ext/536368125/RSA.o

.data%z250      0x00000000        0x0
 .data          0x00000000        0x0 build/default/production/_ext/536368125/RSA.o

.bss%z251       0x00000000        0x0
 .bss           0x00000000        0x0 build/default/production/_ext/536368125/NBNS.o

.data%z252      0x00000000        0x0
 .data          0x00000000        0x0 build/default/production/_ext/536368125/NBNS.o

.bss%z253       0x00000000        0x0
 .bss           0x00000000        0x0 build/default/production/_ext/536368125/MPFS2.o

.data%z254      0x00000000        0x0
 .data          0x00000000        0x0 build/default/production/_ext/536368125/MPFS2.o

.bss%z255       0x00000000        0x0
 .bss           0x00000000        0x0 build/default/production/_ext/536368125/LCDBlocking.o

.data%z256      0x00000000        0x0
 .data          0x00000000        0x0 build/default/production/_ext/536368125/LCDBlocking.o

.bss%z257       0x00000000        0x0
 .bss           0x00000000        0x0 build/default/production/_ext/536368125/IP.o

.data%z258      0x00000000        0x0
 .data          0x00000000        0x0 build/default/production/_ext/536368125/IP.o

.bss%z259       0x00000000        0x0
 .bss           0x00000000        0x0 build/default/production/_ext/536368125/ICMP.o

.data%z260      0x00000000        0x0
 .data          0x00000000        0x0 build/default/production/_ext/536368125/ICMP.o

.bss%z261       0x00000000        0x0
 .bss           0x00000000        0x0 build/default/production/_ext/536368125/Helpers.o

.data%z262      0x00000000        0x0
 .data          0x00000000        0x0 build/default/production/_ext/536368125/Helpers.o

.bss%z263       0x00000000        0x0
 .bss           0x00000000        0x0 build/default/production/_ext/536368125/Hashes.o

.data%z264      0x00000000        0x0
 .data          0x00000000        0x0 build/default/production/_ext/536368125/Hashes.o

.bss%z265       0x00000000        0x0
 .bss           0x00000000        0x0 build/default/production/_ext/536368125/HTTP2.o

.data%z266      0x00000000        0x0
 .data          0x00000000        0x0 build/default/production/_ext/536368125/HTTP2.o

.bss%z267       0x00000000        0x0
 .bss           0x00000000        0x0 build/default/production/_ext/536368125/FileSystem.o

.data%z268      0x00000000        0x0
 .data          0x00000000        0x0 build/default/production/_ext/536368125/FileSystem.o

.bss%z269       0x00000000        0x0
 .bss           0x00000000        0x0 build/default/production/_ext/536368125/FTP.o

.data%z270      0x00000000        0x0
 .data          0x00000000        0x0 build/default/production/_ext/536368125/FTP.o

.data%z271      0x00000000        0x0
 .data          0x00000000        0x0 build/default/production/_ext/536368125/ETHPIC32IntMac.o

.bss%z272       0x00000000        0x0
 .bss           0x00000000        0x0 build/default/production/_ext/536368125/ETHPIC32ExtPhySMSC8720.o

.data%z273      0x00000000        0x0
 .data          0x00000000        0x0 build/default/production/_ext/536368125/ETHPIC32ExtPhySMSC8720.o

.bss%z274       0x00000000        0x0
 .bss           0x00000000        0x0 build/default/production/_ext/536368125/ETHPIC32ExtPhy.o

.data%z275      0x00000000        0x0
 .data          0x00000000        0x0 build/default/production/_ext/536368125/ETHPIC32ExtPhy.o

.bss%z276       0x00000000        0x0
 .bss           0x00000000        0x0 build/default/production/_ext/536368125/ENCX24J600.o

.data%z277      0x00000000        0x0
 .data          0x00000000        0x0 build/default/production/_ext/536368125/ENCX24J600.o

.bss%z278       0x00000000        0x0
 .bss           0x00000000        0x0 build/default/production/_ext/536368125/ENC28J60.o

.data%z279      0x00000000        0x0
 .data          0x00000000        0x0 build/default/production/_ext/536368125/ENC28J60.o

.bss%z280       0x00000000        0x0
 .bss           0x00000000        0x0 build/default/production/_ext/536368125/DynDNS.o

.data%z281      0x00000000        0x0
 .data          0x00000000        0x0 build/default/production/_ext/536368125/DynDNS.o

.bss%z282       0x00000000        0x0
 .bss           0x00000000        0x0 build/default/production/_ext/536368125/Delay.o

.data%z283      0x00000000        0x0
 .data          0x00000000        0x0 build/default/production/_ext/536368125/Delay.o

.bss%z284       0x00000000        0x0
 .bss           0x00000000        0x0 build/default/production/_ext/536368125/DNSs.o

.data%z285      0x00000000        0x0
 .data          0x00000000        0x0 build/default/production/_ext/536368125/DNSs.o

.data%z286      0x00000000        0x0
 .data          0x00000000        0x0 build/default/production/_ext/536368125/DNS.o

.bss%z287       0x00000000        0x0
 .bss           0x00000000        0x0 build/default/production/_ext/536368125/DHCPs.o

.data%z288      0x00000000        0x0
 .data          0x00000000        0x0 build/default/production/_ext/536368125/DHCPs.o

.bss%z289       0x00000000        0x0
 .bss           0x00000000        0x0 build/default/production/_ext/536368125/DHCP.o

.data%z290      0x00000000        0x0
 .data          0x00000000        0x0 build/default/production/_ext/536368125/DHCP.o

.bss%z291       0x00000000        0x0
 .bss           0x00000000        0x0 build/default/production/_ext/536368125/BigInt_helper_PIC32.o

.data%z292      0x00000000        0x0
 .data          0x00000000        0x0 build/default/production/_ext/536368125/BigInt_helper_PIC32.o

.bss%z293       0x00000000        0x0
 .bss           0x00000000        0x0 build/default/production/_ext/536368125/BigInt.o

.data%z294      0x00000000        0x0
 .data          0x00000000        0x0 build/default/production/_ext/536368125/BigInt.o

.bss%z295       0x00000000        0x0
 .bss           0x00000000        0x0 build/default/production/_ext/536368125/BerkeleyAPI.o

.data%z296      0x00000000        0x0
 .data          0x00000000        0x0 build/default/production/_ext/536368125/BerkeleyAPI.o

.bss%z297       0x00000000        0x0
 .bss           0x00000000        0x0 build/default/production/_ext/536368125/AutoIP.o

.data%z298      0x00000000        0x0
 .data          0x00000000        0x0 build/default/production/_ext/536368125/AutoIP.o

.bss%z299       0x00000000        0x0
 .bss           0x00000000        0x0 build/default/production/_ext/536368125/Announce.o

.data%z300      0x00000000        0x0
 .data          0x00000000        0x0 build/default/production/_ext/536368125/Announce.o

.data%z301      0x00000000        0x0
 .data          0x00000000        0x0 build/default/production/_ext/536368125/ARP.o

.bss%z302       0x00000000        0x0
 .bss           0x00000000        0x0 build/default/production/_ext/536368125/ARCFOUR.o

.data%z303      0x00000000        0x0
 .data          0x00000000        0x0 build/default/production/_ext/536368125/ARCFOUR.o

.bss%z304       0x00000000        0x0
 .bss           0x00000000        0x0 build/default/production/_ext/1472/UARTConfig.o

.data%z305      0x00000000        0x0
 .data          0x00000000        0x0 build/default/production/_ext/1472/UARTConfig.o

.bss%z306       0x00000000        0x0
 .bss           0x00000000        0x0 build/default/production/_ext/1472/SMTPDemo.o

.data%z307      0x00000000        0x0
 .data          0x00000000        0x0 build/default/production/_ext/1472/SMTPDemo.o

.bss%z308       0x00000000        0x0
 .bss           0x00000000        0x0 build/default/production/_ext/1472/PingDemo.o

.data%z309      0x00000000        0x0
 .data          0x00000000        0x0 build/default/production/_ext/1472/PingDemo.o

.bss%z310       0x00000000        0x0
 .bss           0x00000000        0x0 build/default/production/_ext/1472/GenericTCPServer.o

.data%z311      0x00000000        0x0
 .data          0x00000000        0x0 build/default/production/_ext/1472/GenericTCPServer.o

.bss%z312       0x00000000        0x0
 .bss           0x00000000        0x0 build/default/production/_ext/1472/GenericTCPClient.o

.bss%z313       0x00000000        0x0
 .bss           0x00000000        0x0 build/default/production/_ext/1472/BerkeleyUDPClientDemo.o

.data%z314      0x00000000        0x0
 .data          0x00000000        0x0 build/default/production/_ext/1472/BerkeleyUDPClientDemo.o

.bss%z315       0x00000000        0x0
 .bss           0x00000000        0x0 build/default/production/_ext/1472/BerkeleyTCPServerDemo.o

.data%z316      0x00000000        0x0
 .data          0x00000000        0x0 build/default/production/_ext/1472/BerkeleyTCPServerDemo.o

.bss%z317       0x00000000        0x0
 .bss           0x00000000        0x0 build/default/production/_ext/1472/BerkeleyTCPClientDemo.o

.data%z318      0x00000000        0x0
 .data          0x00000000        0x0 build/default/production/_ext/1472/BerkeleyTCPClientDemo.o

.bss%z319       0x00000000        0x0
 .bss           0x00000000        0x0 c:/program files/microchip/xc32/v2.41/bin/bin/../../lib/gcc/pic32mx/4.8.3/../../../../pic32mx/lib\debug-exception-return.o

.data%z320      0x00000000        0x0
 .data          0x00000000        0x0 c:/program files/microchip/xc32/v2.41/bin/bin/../../lib/gcc/pic32mx/4.8.3/../../../../pic32mx/lib\debug-exception-return.o

._debug_exception
                0xbfc00480       0x2c
 ._debug_exception
                0xbfc00480       0x2c c:/program files/microchip/xc32/v2.41/bin/bin/../../lib/gcc/pic32mx/4.8.3/../../../../pic32mx/lib\debug-exception-return.o
                0xbfc00480                __DbgExecReturn

.text           0x9d000000     0x98a4
 .text          0x9d000000     0x85a8 build/default/production/_ext/536368125/TCP.o
                0x9d000124                TCPInit
                0x9d00042c                TCPOpen
                0x9d0008bc                TCPWasReset
                0x9d000970                TCPIsConnected
                0x9d0009e8                TCPDisconnect
                0x9d000c8c                TCPClose
                0x9d000d14                TCPGetRemoteInfo
                0x9d000dbc                TCPFlush
                0x9d000e58                TCPIsPutReady
                0x9d001050                TCPPut
                0x9d0013c8                TCPPutArray
                0x9d001848                TCPPutString
                0x9d0018ac                TCPGetTxFIFOFull
                0x9d00197c                TCPDiscard
                0x9d001a24                TCPIsGetReady
                0x9d001bc4                TCPGet
                0x9d001e5c                TCPGetArray
                0x9d002224                TCPGetRxFIFOFree
                0x9d0022ec                TCPPeekArray
                0x9d002598                TCPPeek
                0x9d0025f8                TCPFindArrayEx
                0x9d002c04                TCPFindEx
                0x9d002c7c                TCPTick
                0x9d003d44                TCPProcess
                0x9d007ce8                TCPAdjustFIFOSize
 .text          0x9d0085a8     0x12fc build/default/production/_ext/536368125/UDP.o
                0x9d0085a8                UDPInit
                0x9d008618                UDPOpenEx
                0x9d00886c                UDPTask
                0x9d008d98                UDPIsOpened
                0x9d008dec                UDPClose
                0x9d008e90                UDPSetTxBuffer
                0x9d008ef0                UDPSetRxBuffer
                0x9d008f40                UDPIsPutReady
                0x9d008fcc                UDPPut
                0x9d009058                UDPPutArray
                0x9d009100                UDPPutString
                0x9d009154                UDPFlush
                0x9d009338                UDPIsGetReady
                0x9d0093c8                UDPGet
                0x9d00944c                UDPGetArray
                0x9d00950c                UDPDiscard
                0x9d00956c                UDPProcess

.text           0x9d0098a4     0x22f8
 .text          0x9d0098a4     0x12f4 build/default/production/_ext/536368125/ETHPIC32ExtPhy.o
                0x9d0098a4                EthPhyRestartNegotiation
                0x9d009938                EthPhyGetHwConfigFlags
                0x9d0099ac                EthPhyInit
                0x9d009e74                EthPhyNegotiationComplete
                0x9d00a0d4                EthPhyGetNegotiationResult
                0x9d00a414                EthPhyGetLinkStatus
                0x9d00a4f0                EthPhyReset
                0x9d00a5fc                EthPhyScanLinkStart
                0x9d00a638                EthPhyScanLinkRead
                0x9d00a6a8                EthPhyScanLinkStop
 .text          0x9d00ab98     0x1004 build/default/production/_ext/536368125/Helpers.o
                0x9d00ab98                LFSRSeedRand
                0x9d00ac1c                LFSRRand
                0x9d00ac94                GenerateRandomDWORD
                0x9d00aeec                StringToIPAddress
                0x9d00b244                uitoa
                0x9d00b36c                hexatob
                0x9d00b460                btohexa_high
                0x9d00b4c4                btohexa_low
                0x9d00b528                stricmppgm2ram
                0x9d00b694                swaps
                0x9d00b6e0                swapl
                0x9d00b7c8                CalcIPChecksum
                0x9d00b89c                strupr
                0x9d00b938                FormatNetBIOSName
                0x9d00b9f8                strnchr
                0x9d00ba9c                strncpy_m

.text           0x9d00bb9c     0x1e3c
 .text          0x9d00bb9c      0xf9c build/default/production/_ext/536368125/ETHPIC32IntMac.o
                0x9d00bb9c                MACInit
                0x9d00bfc0                MACIsLinked
                0x9d00bff0                MACGetTxBaseAddr
                0x9d00c030                MACGetHttpBaseAddr
                0x9d00c058                MACGetSslBaseAddr
                0x9d00c080                MACSetWritePtr
                0x9d00c0b8                MACIsTxReady
                0x9d00c288                MACPut
                0x9d00c2c4                MACPutArray
                0x9d00c324                MACPutHeader
                0x9d00c418                MACFlush
                0x9d00c488                MACDiscardRx
                0x9d00c4e8                MACGetHeader
                0x9d00c71c                MACSetReadPtrInRx
                0x9d00c758                MACSetReadPtr
                0x9d00c790                MACGet
                0x9d00c7c0                MACGetArray
                0x9d00c830                MACGetFreeRxSize
                0x9d00c880                MACMemCopyAsync
                0x9d00c924                MACIsMemCopyDone
                0x9d00c948                CalcIPBufferChecksum
                0x9d00c990                MACCalcRxChecksum
 .text          0x9d00cb38      0xea0 build/default/production/_ext/536368125/DNS.o
                0x9d00cb38                DNSBeginUsage
                0x9d00cb8c                DNSEndUsage
                0x9d00cbfc                DNSResolve
                0x9d00cc90                DNSIsResolved

.text           0x9d00d9d8     0x1650
 .text          0x9d00d9d8      0xb78 build/default/production/_ext/536368125/DHCPs.o
                0x9d00d9d8                DHCPServerTask
 .text          0x9d00e550      0xad8 build/default/production/_ext/1472/MainDemo.o
                0x9d00e550                _general_exception_handler
                0x9d00e580                main
                0x9d00e79c                DisplayIPValue

.text           0x9d00f028     0x1294
 .text          0x9d00f028      0xa48 build/default/production/_ext/536368125/Telnet.o
                0x9d00f028                TelnetTask
 .text          0x9d00fa70      0x84c build/default/production/_ext/1472/LEDTCPServer.o
                0x9d00fa70                LEDTCPServer

.rodata         0x9d0102bc      0x7d4
 .rodata        0x9d0102bc      0x7d4 c:/program files/microchip/xc32/v2.41/bin/bin/../../lib/gcc/pic32mx/4.8.3/../../../../pic32mx/lib\libmchp_peripheral_32MX795F512L.a(int_tbl_lib.o)
                0x9d0102bc                __IntSrcTbl
                0x9d0107d8                __IntVectorTbl

.text           0x9d010a90      0xaa8
 .text          0x9d010a90      0x650 build/default/production/_ext/536368125/ARP.o
                0x9d010a90                ARPSendPkt
                0x9d010c44                ARPInit
                0x9d010ccc                ARPProcess
                0x9d010e90                ARPResolve
                0x9d010f74                ARPIsResolved
                0x9d011054                SwapARPPacket
 .text          0x9d0110e0      0x458 c:/program files/microchip/xc32/v2.41/bin/bin/../../lib/gcc/pic32mx/4.8.3\libgcc.a(_udivdi3.o)
                0x9d0110e0                __udivdi3

.text           0x9d011538      0x748
 .text          0x9d011538      0x3f0 build/default/production/_ext/536368125/Announce.o
                0x9d011538                AnnounceIP
                0x9d0116b4                DiscoveryTask
 .text          0x9d011928      0x358 build/default/production/_ext/536368125/Tick.o
                0x9d011928                TickInit
                0x9d011a4c                TickGet
                0x9d011a84                TickGetDiv256
                0x9d011ae8                TickGetDiv64K
                0x9d011b4c                TickConvertToMilliseconds
                0x9d011bd0                _T1Interrupt

.text           0x9d011c80      0x670
 .text          0x9d011c80      0x348 build/default/production/_ext/536368125/IP.o
                0x9d011c80                IPGetHeader
                0x9d011dc0                IPPutHeader
                0x9d011eec                IPSetRxBuffer
 .text          0x9d011fc8      0x328 build/default/production/_ext/1472/GenericTCPClient.o
                0x9d011fc8                GenericTCPClient

.text           0x9d0122f0      0x2c8
 .text          0x9d0122f0      0x2c8 build/default/production/_ext/536368125/StackTsk.o
                0x9d0122f0                StackInit
                0x9d012364                StackTask
                0x9d012578                StackApplications

.text.malloc    0x9d0125b8      0x28c
 .text.malloc   0x9d0125b8      0x28c c:/program files/microchip/xc32/v2.41/bin/bin/../../lib/gcc/pic32mx/4.8.3/../../../../pic32mx/lib\libc.a(malloc.o)
                0x9d0125b8                malloc

.text           0x9d012844      0x254
 .text          0x9d012844      0x254 build/default/production/_ext/1472/GenericTCPServer.o
                0x9d012844                GenericTCPServer

.text._EthAckPacket
                0x9d012a98      0x250
 .text._EthAckPacket
                0x9d012a98      0x250 c:/program files/microchip/xc32/v2.41/bin/bin/../../lib/gcc/pic32mx/4.8.3/../../../../pic32mx/lib\libmchp_peripheral_32MX795F512L.a(eth_ack_packet_lib.o)
                0x9d012a98                _EthAckPacket

.text.EthRxBuffersAppend
                0x9d012ce8      0x238
 .text.EthRxBuffersAppend
                0x9d012ce8      0x238 c:/program files/microchip/xc32/v2.41/bin/bin/../../lib/gcc/pic32mx/4.8.3/../../../../pic32mx/lib\libmchp_peripheral_32MX795F512L.a(eth_rx_buffers_append_lib.o)
                0x9d012ce8                EthRxBuffersAppend

.rodata         0x9d012f20      0x1d8
 .rodata        0x9d012f20      0x1d8 build/default/production/_ext/536368125/Telnet.o

.dinit          0x9d0130f8      0x1c0
 .dinit         0x9d0130f8      0x1c0 data_init

.rodata         0x9d0132b8      0x1bc
 .rodata        0x9d0132b8      0x1bc build/default/production/_ext/1472/LEDTCPServer.o

.text._sbrk_init
                0x9d013474      0x194
 .text._sbrk_init
                0x9d013474      0x194 c:/program files/microchip/xc32/v2.41/bin/bin/../../lib/gcc/pic32mx/4.8.3/../../../../pic32mx/lib\libpic32.a(sbrk.o)
                0x9d013474                _sbrk_init

.text._EthRxAckBuffer
                0x9d013608      0x174
 .text._EthRxAckBuffer
                0x9d013608      0x174 c:/program files/microchip/xc32/v2.41/bin/bin/../../lib/gcc/pic32mx/4.8.3/../../../../pic32mx/lib\libmchp_peripheral_32MX795F512L.a(eth_ack_packet_lib.o)

.text.EthDescriptorsPoolAdd
                0x9d01377c      0x170
 .text.EthDescriptorsPoolAdd
                0x9d01377c      0x170 c:/program files/microchip/xc32/v2.41/bin/bin/../../lib/gcc/pic32mx/4.8.3/../../../../pic32mx/lib\libmchp_peripheral_32MX795F512L.a(eth_descriptors_add_lib.o)
                0x9d01377c                EthDescriptorsPoolAdd

.text.EthRxGetPacket
                0x9d0138ec      0x170
 .text.EthRxGetPacket
                0x9d0138ec      0x170 c:/program files/microchip/xc32/v2.41/bin/bin/../../lib/gcc/pic32mx/4.8.3/../../../../pic32mx/lib\libmchp_peripheral_32MX795F512L.a(eth_rx_get_packet_lib.o)
                0x9d0138ec                EthRxGetPacket

.text           0x9d013a5c      0x2d0
 .text          0x9d013a5c      0x168 c:/program files/microchip/xc32/v2.41/bin/bin/../../lib/gcc/pic32mx/4.8.3/../../../../pic32mx/lib\libpic32.a(memcpy.o)
                0x9d013a5c                memcpy
 .text          0x9d013bc4      0x168 c:/program files/microchip/xc32/v2.41/bin/bin/../../lib/gcc/pic32mx/4.8.3/../../../../pic32mx/lib\libpic32.a(strlen.o)
                0x9d013bc4                strlen

.text           0x9d013d2c      0x160
 .text          0x9d013d2c      0x160 build/default/production/_ext/536368125/ICMP.o
                0x9d013d2c                ICMPProcess

.text.EthDescriptorsAdd
                0x9d013e8c      0x160
 .text.EthDescriptorsAdd
                0x9d013e8c      0x160 c:/program files/microchip/xc32/v2.41/bin/bin/../../lib/gcc/pic32mx/4.8.3/../../../../pic32mx/lib\libmchp_peripheral_32MX795F512L.a(eth_descriptors_add_lib.o)
                0x9d013e8c                EthDescriptorsAdd

.text           0x9d013fec      0x15c
 .text          0x9d013fec      0x15c build/default/production/_ext/536368125/ETHPIC32ExtPhySMSC8720.o
                0x9d013fec                EthPhyConfigureMII
                0x9d014030                EthPhyConfigureMdix
                0x9d0140fc                EthPhyMIIMAddress
                0x9d014120                EthPhyMIIMClock

.text.EthTxSendPacket
                0x9d014148      0x158
 .text.EthTxSendPacket
                0x9d014148      0x158 c:/program files/microchip/xc32/v2.41/bin/bin/../../lib/gcc/pic32mx/4.8.3/../../../../pic32mx/lib\libmchp_peripheral_32MX795F512L.a(eth_tx_packet_lib.o)
                0x9d014148                EthTxSendPacket

.text._EthAppendBusyList
                0x9d0142a0      0x14c
 .text._EthAppendBusyList
                0x9d0142a0      0x14c c:/program files/microchip/xc32/v2.41/bin/bin/../../lib/gcc/pic32mx/4.8.3/../../../../pic32mx/lib\libmchp_peripheral_32MX795F512L.a(_eth_append_busy_list_lib.o)
                0x9d0142a0                _EthAppendBusyList

.text.realloc   0x9d0143ec      0x148
 .text.realloc  0x9d0143ec      0x148 c:/program files/microchip/xc32/v2.41/bin/bin/../../lib/gcc/pic32mx/4.8.3/../../../../pic32mx/lib\libc.a(malloc.o)
                0x9d0143ec                realloc

.text.general_exception
                0x9d014534       0xdc
 .text.general_exception
                0x9d014534       0xdc c:/program files/microchip/xc32/v2.41/bin/bin/../../lib/gcc/pic32mx/4.8.3/../../../../pic32mx/lib\libpic32.a(general-exception.o)
                0x9d014534                _general_exception_context

.text.EthTxSendBuffer
                0x9d014610       0xd8
 .text.EthTxSendBuffer
                0x9d014610       0xd8 c:/program files/microchip/xc32/v2.41/bin/bin/../../lib/gcc/pic32mx/4.8.3/../../../../pic32mx/lib\libmchp_peripheral_32MX795F512L.a(eth_tx_packet_lib.o)
                0x9d014610                EthTxSendBuffer

.text           0x9d0146e8       0xd4
 .text          0x9d0146e8       0xd4 build/default/production/_ext/536368125/Delay.o
                0x9d0146e8                DelayMs
                0x9d014764                Delay10us

.text._sbrk     0x9d0147bc       0xc8
 .text._sbrk    0x9d0147bc       0xc8 c:/program files/microchip/xc32/v2.41/bin/bin/../../lib/gcc/pic32mx/4.8.3/../../../../pic32mx/lib\libpic32.a(sbrk.o)
                0x9d0147bc                _sbrk

.text.EthInit   0x9d014884       0xb4
 .text.EthInit  0x9d014884       0xb4 c:/program files/microchip/xc32/v2.41/bin/bin/../../lib/gcc/pic32mx/4.8.3/../../../../pic32mx/lib\libmchp_peripheral_32MX795F512L.a(eth_init_lib.o)
                0x9d014884                EthInit

.text.EthMACOpen
                0x9d014938       0xb4
 .text.EthMACOpen
                0x9d014938       0xb4 c:/program files/microchip/xc32/v2.41/bin/bin/../../lib/gcc/pic32mx/4.8.3/../../../../pic32mx/lib\libmchp_peripheral_32MX795F512L.a(eth_mac_open_lib.o)
                0x9d014938                EthMACOpen

.text._EthTxSchedBuffer.part.0
                0x9d0149ec       0xa8
 .text._EthTxSchedBuffer.part.0
                0x9d0149ec       0xa8 c:/program files/microchip/xc32/v2.41/bin/bin/../../lib/gcc/pic32mx/4.8.3/../../../../pic32mx/lib\libmchp_peripheral_32MX795F512L.a(eth_tx_packet_lib.o)

.text           0x9d014a94      0x140
 .text          0x9d014a94       0xa8 c:/program files/microchip/xc32/v2.41/bin/bin/../../lib/gcc/pic32mx/4.8.3/../../../../pic32mx/lib\libpic32.a(memset.o)
                0x9d014a94                memset
 .text          0x9d014b3c       0x98 c:/program files/microchip/xc32/v2.41/bin/bin/../../lib/gcc/pic32mx/4.8.3/../../../../pic32mx/lib\libpic32.a(memcmp.o)
                0x9d014b3c                memcmp

.text._EthTxSchedList
                0x9d014bd4       0x8c
 .text._EthTxSchedList
                0x9d014bd4       0x8c c:/program files/microchip/xc32/v2.41/bin/bin/../../lib/gcc/pic32mx/4.8.3/../../../../pic32mx/lib\libmchp_peripheral_32MX795F512L.a(eth_tx_packet_lib.o)

.text           0x9d014c60       0x84
 .text          0x9d014c60       0x84 c:/program files/microchip/xc32/v2.41/bin/bin/../../lib/gcc/pic32mx/4.8.3/../../../../pic32mx/lib\libpic32.a(pic32_data_init.o)
                0x9d014c60                __pic32_data_init

.text.EthTxGetBufferStatus
                0x9d014ce4       0x78
 .text.EthTxGetBufferStatus
                0x9d014ce4       0x78 c:/program files/microchip/xc32/v2.41/bin/bin/../../lib/gcc/pic32mx/4.8.3/../../../../pic32mx/lib\libmchp_peripheral_32MX795F512L.a(eth_tx_packet_lib.o)
                0x9d014ce4                EthTxGetBufferStatus

.text.EthMIIMConfig
                0x9d014d5c       0x78
 .text.EthMIIMConfig
                0x9d014d5c       0x78 c:/program files/microchip/xc32/v2.41/bin/bin/../../lib/gcc/pic32mx/4.8.3/../../../../pic32mx/lib\libmchp_peripheral_32MX795F512L.a(eth_miim_access.o)
                0x9d014d5c                EthMIIMConfig

.text.strncpy   0x9d014dd4       0x74
 .text.strncpy  0x9d014dd4       0x74 c:/program files/microchip/xc32/v2.41/bin/bin/../../lib/gcc/pic32mx/4.8.3/../../../../pic32mx/lib\libc.a(strncpy.o)
                0x9d014dd4                strncpy

.text.EthRxFiltersPMSet
                0x9d014e48       0x6c
 .text.EthRxFiltersPMSet
                0x9d014e48       0x6c c:/program files/microchip/xc32/v2.41/bin/bin/../../lib/gcc/pic32mx/4.8.3/../../../../pic32mx/lib\libmchp_peripheral_32MX795F512L.a(eth_rx_filters_lib.o)
                0x9d014e48                EthRxFiltersPMSet

.rodata         0x9d014eb4       0x68
 .rodata        0x9d014eb4       0x68 build/default/production/_ext/1472/GenericTCPClient.o

.text.main_entry
                0x9d014f1c       0x54
 .text.main_entry
                0x9d014f1c       0x54 C:\Users\kamer\AppData\Local\Temp\ccD0dtMf.o
                0x9d014f50                __crt0_exit

.rodata         0x9d014f70       0x54
 .rodata        0x9d014f70       0x54 c:/program files/microchip/xc32/v2.41/bin/bin/../../lib/gcc/pic32mx/4.8.3/../../../../pic32mx/lib\libmchp_peripheral_32MX795F512L.a(_ports_tbl_libp.o)
                0x9d014f70                PortRegTbl

.text.sbrk      0x9d014fc4       0x50
 .text.sbrk     0x9d014fc4       0x50 c:/program files/microchip/xc32/v2.41/bin/bin/../../lib/gcc/pic32mx/4.8.3/../../../../pic32mx/lib\libpic32.a(sbrk.o)
                0x9d014fc4                sbrk

.text.calloc    0x9d015014       0x4c
 .text.calloc   0x9d015014       0x4c c:/program files/microchip/xc32/v2.41/bin/bin/../../lib/gcc/pic32mx/4.8.3/../../../../pic32mx/lib\libc.a(calloc.o)
                0x9d015014                calloc

.text.EthMACSetAddress
                0x9d015060       0x48
 .text.EthMACSetAddress
                0x9d015060       0x48 c:/program files/microchip/xc32/v2.41/bin/bin/../../lib/gcc/pic32mx/4.8.3/../../../../pic32mx/lib\libmchp_peripheral_32MX795F512L.a(eth_mac_set_address_max_lib.o)
                0x9d015060                EthMACSetAddress

.text._bootstrap_exception_handler
                0x9d0150a8       0x48
 .text._bootstrap_exception_handler
                0x9d0150a8       0x48 c:/program files/microchip/xc32/v2.41/bin/bin/../../lib/gcc/pic32mx/4.8.3/../../../../pic32mx/lib\libpic32.a(default-bootstrap-exception-handler.o)
                0x9d0150a8                _bootstrap_exception_handler

.vector_default
                0x9d0150f0       0x48
 .vector_default
                0x9d0150f0       0x48 c:/program files/microchip/xc32/v2.41/bin/bin/../../lib/gcc/pic32mx/4.8.3/../../../../pic32mx/lib\libpic32.a(defaultinterrupt.o)
                0x9d0150f0                _DefaultInterrupt

.text           0x9d015138       0x44
 .text          0x9d015138       0x44 c:/program files/microchip/xc32/v2.41/bin/bin/../../lib/gcc/pic32mx/4.8.3/../../../../pic32mx/lib\pic32_software_reset.o
                0x9d015138                __pic32_software_reset

.text.EthMACGetAddress
                0x9d01517c       0x44
 .text.EthMACGetAddress
                0x9d01517c       0x44 c:/program files/microchip/xc32/v2.41/bin/bin/../../lib/gcc/pic32mx/4.8.3/../../../../pic32mx/lib\libmchp_peripheral_32MX795F512L.a(eth_mac_set_address_max_lib.o)
                0x9d01517c                EthMACGetAddress

.text.EthMIIMReadStart
                0x9d0151c0       0x40
 .text.EthMIIMReadStart
                0x9d0151c0       0x40 c:/program files/microchip/xc32/v2.41/bin/bin/../../lib/gcc/pic32mx/4.8.3/../../../../pic32mx/lib\libmchp_peripheral_32MX795F512L.a(eth_miim_access.o)
                0x9d0151c0                EthMIIMReadStart

.text.INTSetVectorPriority
                0x9d015200       0x40
 .text.INTSetVectorPriority
                0x9d015200       0x40 c:/program files/microchip/xc32/v2.41/bin/bin/../../lib/gcc/pic32mx/4.8.3/../../../../pic32mx/lib\libmchp_peripheral_32MX795F512L.a(int_tbl_lib.o)
                0x9d015200                INTSetVectorPriority

.text.INTSetVectorSubPriority
                0x9d015240       0x40
 .text.INTSetVectorSubPriority
                0x9d015240       0x40 c:/program files/microchip/xc32/v2.41/bin/bin/../../lib/gcc/pic32mx/4.8.3/../../../../pic32mx/lib\libmchp_peripheral_32MX795F512L.a(int_tbl_lib.o)
                0x9d015240                INTSetVectorSubPriority

.text.PORTSetPinsDigitalIn
                0x9d015280       0x40
 .text.PORTSetPinsDigitalIn
                0x9d015280       0x40 c:/program files/microchip/xc32/v2.41/bin/bin/../../lib/gcc/pic32mx/4.8.3/../../../../pic32mx/lib\libmchp_peripheral_32MX795F512L.a(port_set_pins_digital_in_lib.o)
                0x9d015280                PORTSetPinsDigitalIn

.text.PORTSetPinsDigitalOut
                0x9d0152c0       0x40
 .text.PORTSetPinsDigitalOut
                0x9d0152c0       0x40 c:/program files/microchip/xc32/v2.41/bin/bin/../../lib/gcc/pic32mx/4.8.3/../../../../pic32mx/lib\libmchp_peripheral_32MX795F512L.a(port_set_pins_digital_out_lib.o)
                0x9d0152c0                PORTSetPinsDigitalOut

.rodata         0x9d015300       0x3c
 .rodata        0x9d015300       0x3c build/default/production/_ext/536368125/TCP.o
                0x9d015300                TCPSocketInitializer

.text.EthRxGetBuffer
                0x9d01533c       0x3c
 .text.EthRxGetBuffer
                0x9d01533c       0x3c c:/program files/microchip/xc32/v2.41/bin/bin/../../lib/gcc/pic32mx/4.8.3/../../../../pic32mx/lib\libmchp_peripheral_32MX795F512L.a(eth_rx_get_packet_lib.o)
                0x9d01533c                EthRxGetBuffer

.text.INTEnable
                0x9d015378       0x3c
 .text.INTEnable
                0x9d015378       0x3c c:/program files/microchip/xc32/v2.41/bin/bin/../../lib/gcc/pic32mx/4.8.3/../../../../pic32mx/lib\libmchp_peripheral_32MX795F512L.a(int_tbl_lib.o)
                0x9d015378                INTEnable

.text._EthFindPacket
                0x9d0153b4       0x38
 .text._EthFindPacket
                0x9d0153b4       0x38 c:/program files/microchip/xc32/v2.41/bin/bin/../../lib/gcc/pic32mx/4.8.3/../../../../pic32mx/lib\libmchp_peripheral_32MX795F512L.a(eth_tx_packet_lib.o)
                0x9d0153b4                _EthFindPacket

.text.EthMIIMWriteStart
                0x9d0153ec       0x38
 .text.EthMIIMWriteStart
                0x9d0153ec       0x38 c:/program files/microchip/xc32/v2.41/bin/bin/../../lib/gcc/pic32mx/4.8.3/../../../../pic32mx/lib\libmchp_peripheral_32MX795F512L.a(eth_miim_access.o)
                0x9d0153ec                EthMIIMWriteStart

.text.EthRxSetBufferSize
                0x9d015424       0x34
 .text.EthRxSetBufferSize
                0x9d015424       0x34 c:/program files/microchip/xc32/v2.41/bin/bin/../../lib/gcc/pic32mx/4.8.3/../../../../pic32mx/lib\libmchp_peripheral_32MX795F512L.a(eth_rx_set_buffer_size_lib.o)
                0x9d015424                EthRxSetBufferSize

.text.EthMIIMScanStart
                0x9d015458       0x34
 .text.EthMIIMScanStart
                0x9d015458       0x34 c:/program files/microchip/xc32/v2.41/bin/bin/../../lib/gcc/pic32mx/4.8.3/../../../../pic32mx/lib\libmchp_peripheral_32MX795F512L.a(eth_miim_access.o)
                0x9d015458                EthMIIMScanStart

.text.INTEnableSystemMultiVectoredInt
                0x9d01548c       0x34
 .text.INTEnableSystemMultiVectoredInt
                0x9d01548c       0x34 c:/program files/microchip/xc32/v2.41/bin/bin/../../lib/gcc/pic32mx/4.8.3/../../../../pic32mx/lib\libmchp_peripheral_32MX795F512L.a(int_enable_mv_int_lib.o)
                0x9d01548c                INTEnableSystemMultiVectoredInt

.text.EthTxAcknowledgeBuffer
                0x9d0154c0       0x30
 .text.EthTxAcknowledgeBuffer
                0x9d0154c0       0x30 c:/program files/microchip/xc32/v2.41/bin/bin/../../lib/gcc/pic32mx/4.8.3/../../../../pic32mx/lib\libmchp_peripheral_32MX795F512L.a(eth_ack_packet_lib.o)
                0x9d0154c0                EthTxAcknowledgeBuffer

.text.EthTxAckBuffer
                0x9d0154f0       0x30
 .text.EthTxAckBuffer
                0x9d0154f0       0x30 c:/program files/microchip/xc32/v2.41/bin/bin/../../lib/gcc/pic32mx/4.8.3/../../../../pic32mx/lib\libmchp_peripheral_32MX795F512L.a(eth_ack_packet_lib.o)
                0x9d0154f0                EthTxAckBuffer

.text.INTGetVectorPriority
                0x9d015520       0x30
 .text.INTGetVectorPriority
                0x9d015520       0x30 c:/program files/microchip/xc32/v2.41/bin/bin/../../lib/gcc/pic32mx/4.8.3/../../../../pic32mx/lib\libmchp_peripheral_32MX795F512L.a(int_tbl_lib.o)
                0x9d015520                INTGetVectorPriority

.text.INTGetVectorSubPriority
                0x9d015550       0x30
 .text.INTGetVectorSubPriority
                0x9d015550       0x30 c:/program files/microchip/xc32/v2.41/bin/bin/../../lib/gcc/pic32mx/4.8.3/../../../../pic32mx/lib\libmchp_peripheral_32MX795F512L.a(int_tbl_lib.o)
                0x9d015550                INTGetVectorSubPriority

.text.free      0x9d015580       0x30
 .text.free     0x9d015580       0x30 c:/program files/microchip/xc32/v2.41/bin/bin/../../lib/gcc/pic32mx/4.8.3/../../../../pic32mx/lib\libc.a(malloc.o)
                0x9d015580                free

.text.INTClearFlag
                0x9d0155b0       0x2c
 .text.INTClearFlag
                0x9d0155b0       0x2c c:/program files/microchip/xc32/v2.41/bin/bin/../../lib/gcc/pic32mx/4.8.3/../../../../pic32mx/lib\libmchp_peripheral_32MX795F512L.a(int_tbl_lib.o)
                0x9d0155b0                INTClearFlag

.text.INTSetFlag
                0x9d0155dc       0x2c
 .text.INTSetFlag
                0x9d0155dc       0x2c c:/program files/microchip/xc32/v2.41/bin/bin/../../lib/gcc/pic32mx/4.8.3/../../../../pic32mx/lib\libmchp_peripheral_32MX795F512L.a(int_tbl_lib.o)
                0x9d0155dc                INTSetFlag

.text.INTGetFlag
                0x9d015608       0x2c
 .text.INTGetFlag
                0x9d015608       0x2c c:/program files/microchip/xc32/v2.41/bin/bin/../../lib/gcc/pic32mx/4.8.3/../../../../pic32mx/lib\libmchp_peripheral_32MX795F512L.a(int_tbl_lib.o)
                0x9d015608                INTGetFlag

.text.INTGetEnable
                0x9d015634       0x2c
 .text.INTGetEnable
                0x9d015634       0x2c c:/program files/microchip/xc32/v2.41/bin/bin/../../lib/gcc/pic32mx/4.8.3/../../../../pic32mx/lib\libmchp_peripheral_32MX795F512L.a(int_tbl_lib.o)
                0x9d015634                INTGetEnable

.text._stub_sbd_memlayout
                0x9d015660       0x2c
 .text._stub_sbd_memlayout
                0x9d015660       0x2c c:/program files/microchip/xc32/v2.41/bin/bin/../../lib/gcc/pic32mx/4.8.3/../../../../pic32mx/lib\libpic32.a(sbrk.o)
                0x9d015660                _sbd_memlayout
                0x9d015660                _stub_sbd_memlayout

.text.EthMIIMReadResult
                0x9d01568c       0x28
 .text.EthMIIMReadResult
                0x9d01568c       0x28 c:/program files/microchip/xc32/v2.41/bin/bin/../../lib/gcc/pic32mx/4.8.3/../../../../pic32mx/lib\libmchp_peripheral_32MX795F512L.a(eth_miim_access.o)
                0x9d01568c                EthMIIMReadResult

.text.PORTClearBits
                0x9d0156b4       0x28
 .text.PORTClearBits
                0x9d0156b4       0x28 c:/program files/microchip/xc32/v2.41/bin/bin/../../lib/gcc/pic32mx/4.8.3/../../../../pic32mx/lib\libmchp_peripheral_32MX795F512L.a(port_clear_bits_lib.o)
                0x9d0156b4                PORTClearBits

.text.PORTSetBits
                0x9d0156dc       0x28
 .text.PORTSetBits
                0x9d0156dc       0x28 c:/program files/microchip/xc32/v2.41/bin/bin/../../lib/gcc/pic32mx/4.8.3/../../../../pic32mx/lib\libmchp_peripheral_32MX795F512L.a(port_set_bits_lib.o)
                0x9d0156dc                PORTSetBits

.text.EthMIIMScanResult
                0x9d015704       0x20
 .text.EthMIIMScanResult
                0x9d015704       0x20 c:/program files/microchip/xc32/v2.41/bin/bin/../../lib/gcc/pic32mx/4.8.3/../../../../pic32mx/lib\libmchp_peripheral_32MX795F512L.a(eth_miim_access.o)
                0x9d015704                EthMIIMScanResult

.rodata         0x9d015724       0x1c
 .rodata        0x9d015724       0x1c build/default/production/_ext/536368125/Announce.o

.text.EthRxAcknowledgeBuffer
                0x9d015740       0x1c
 .text.EthRxAcknowledgeBuffer
                0x9d015740       0x1c c:/program files/microchip/xc32/v2.41/bin/bin/../../lib/gcc/pic32mx/4.8.3/../../../../pic32mx/lib\libmchp_peripheral_32MX795F512L.a(eth_ack_packet_lib.o)
                0x9d015740                EthRxAcknowledgeBuffer

.text.EthRxAckBuffer
                0x9d01575c       0x1c
 .text.EthRxAckBuffer
                0x9d01575c       0x1c c:/program files/microchip/xc32/v2.41/bin/bin/../../lib/gcc/pic32mx/4.8.3/../../../../pic32mx/lib\libmchp_peripheral_32MX795F512L.a(eth_ack_packet_lib.o)
                0x9d01575c                EthRxAckBuffer

.text.INTRestoreInterrupts
                0x9d015778       0x1c
 .text.INTRestoreInterrupts
                0x9d015778       0x1c c:/program files/microchip/xc32/v2.41/bin/bin/../../lib/gcc/pic32mx/4.8.3/../../../../pic32mx/lib\libmchp_peripheral_32MX795F512L.a(int_restore_interrupts_lib.o)
                0x9d015778                INTRestoreInterrupts

.text.EthRxFiltersHTSet
                0x9d015794       0x18
 .text.EthRxFiltersHTSet
                0x9d015794       0x18 c:/program files/microchip/xc32/v2.41/bin/bin/../../lib/gcc/pic32mx/4.8.3/../../../../pic32mx/lib\libmchp_peripheral_32MX795F512L.a(eth_rx_filters_lib.o)
                0x9d015794                EthRxFiltersHTSet

.text.CheKseg0CacheOff
                0x9d0157ac       0x18
 .text.CheKseg0CacheOff
                0x9d0157ac       0x18 c:/program files/microchip/xc32/v2.41/bin/bin/../../lib/gcc/pic32mx/4.8.3/../../../../pic32mx/lib\libmchp_peripheral_32MX795F512L.a(pcache.o)
                0x9d0157ac                CheKseg0CacheOff

.text.CheKseg0CacheOn
                0x9d0157c4       0x18
 .text.CheKseg0CacheOn
                0x9d0157c4       0x18 c:/program files/microchip/xc32/v2.41/bin/bin/../../lib/gcc/pic32mx/4.8.3/../../../../pic32mx/lib\libmchp_peripheral_32MX795F512L.a(pcache.o)
                0x9d0157c4                CheKseg0CacheOn

.text           0x9d0157dc       0x18
 .text          0x9d0157dc       0x18 c:/program files/microchip/xc32/v2.41/bin/bin/../../lib/gcc/pic32mx/4.8.3/../../../../pic32mx/lib\libpic32.a(default-nmi-handler.o)
                0x9d0157dc                _nmi_handler

.text.EthMACSetMaxFrame
                0x9d0157f4       0x14
 .text.EthMACSetMaxFrame
                0x9d0157f4       0x14 c:/program files/microchip/xc32/v2.41/bin/bin/../../lib/gcc/pic32mx/4.8.3/../../../../pic32mx/lib\libmchp_peripheral_32MX795F512L.a(eth_mac_set_address_max_lib.o)
                0x9d0157f4                EthMACSetMaxFrame

.text.EthRxFiltersPMClr
                0x9d015808       0x14
 .text.EthRxFiltersPMClr
                0x9d015808       0x14 c:/program files/microchip/xc32/v2.41/bin/bin/../../lib/gcc/pic32mx/4.8.3/../../../../pic32mx/lib\libmchp_peripheral_32MX795F512L.a(eth_rx_filters_lib.o)
                0x9d015808                EthRxFiltersPMClr

.rodata         0x9d01581c       0x10
 .rodata        0x9d01581c       0x10 build/default/production/_ext/1472/MainDemo.o

.text.EthRxFiltersSet
                0x9d01582c       0x10
 .text.EthRxFiltersSet
                0x9d01582c       0x10 c:/program files/microchip/xc32/v2.41/bin/bin/../../lib/gcc/pic32mx/4.8.3/../../../../pic32mx/lib\libmchp_peripheral_32MX795F512L.a(eth_rx_filters_lib.o)
                0x9d01582c                EthRxFiltersSet

.text.EthRxFiltersClr
                0x9d01583c       0x10
 .text.EthRxFiltersClr
                0x9d01583c       0x10 c:/program files/microchip/xc32/v2.41/bin/bin/../../lib/gcc/pic32mx/4.8.3/../../../../pic32mx/lib\libmchp_peripheral_32MX795F512L.a(eth_rx_filters_lib.o)
                0x9d01583c                EthRxFiltersClr

.text.EthRxFiltersWrite
                0x9d01584c       0x10
 .text.EthRxFiltersWrite
                0x9d01584c       0x10 c:/program files/microchip/xc32/v2.41/bin/bin/../../lib/gcc/pic32mx/4.8.3/../../../../pic32mx/lib\libmchp_peripheral_32MX795F512L.a(eth_rx_filters_lib.o)
                0x9d01584c                EthRxFiltersWrite

.rodata         0x9d01585c       0x18
 .rodata        0x9d01585c       0x10 c:/program files/microchip/xc32/v2.41/bin/bin/../../lib/gcc/pic32mx/4.8.3/../../../../pic32mx/lib\libmchp_peripheral_32MX795F512L.a(eth_miim_access.o)
 .rodata        0x9d01586c        0x8 build/default/production/_ext/536368125/ETHPIC32IntMac.o

.text.ReadCoreTimer
                0x9d015874        0x8
 .text.ReadCoreTimer
                0x9d015874        0x8 c:/program files/microchip/xc32/v2.41/bin/bin/../../lib/gcc/pic32mx/4.8.3/../../../../pic32mx/lib\libmchp_peripheral.a(read_core_timer_lib.o)
                0x9d015874                ReadCoreTimer

.text.INTDisableInterrupts
                0x9d01587c        0x8
 .text.INTDisableInterrupts
                0x9d01587c        0x8 c:/program files/microchip/xc32/v2.41/bin/bin/../../lib/gcc/pic32mx/4.8.3/../../../../pic32mx/lib\libmchp_peripheral_32MX795F512L.a(int_disable_interrupts_lib.o)
                0x9d01587c                INTDisableInterrupts

.text.INTEnableInterrupts
                0x9d015884        0x8
 .text.INTEnableInterrupts
                0x9d015884        0x8 c:/program files/microchip/xc32/v2.41/bin/bin/../../lib/gcc/pic32mx/4.8.3/../../../../pic32mx/lib\libmchp_peripheral_32MX795F512L.a(int_enable_interrupts_lib.o)
                0x9d015884                INTEnableInterrupts

.text._on_reset
                0x9d01588c        0x8
 .text._on_reset
                0x9d01588c        0x8 c:/program files/microchip/xc32/v2.41/bin/bin/../../lib/gcc/pic32mx/4.8.3/../../../../pic32mx/lib\libpic32.a(default-on-reset.o)
                0x9d01588c                _on_reset

.text._on_bootstrap
                0x9d015894        0x8
 .text._on_bootstrap
                0x9d015894        0x8 c:/program files/microchip/xc32/v2.41/bin/bin/../../lib/gcc/pic32mx/4.8.3/../../../../pic32mx/lib\libpic32.a(default-on-bootstrap.o)
                0x9d015894                _on_bootstrap

.text.getpagesize
                0x9d01589c        0x8
 .text.getpagesize
                0x9d01589c        0x8 c:/program files/microchip/xc32/v2.41/bin/bin/../../lib/gcc/pic32mx/4.8.3/../../../../pic32mx/lib\libpic32.a(sbrk.o)
                0x9d01589c                getpagesize

.text%z321      0x00000000        0x0
 .text          0x00000000        0x0 c:/program files/microchip/xc32/v2.41/bin/bin/../../lib/gcc/pic32mx/4.8.3/../../../../pic32mx/lib\libpic32.a(errno.o)

.text%z322      0x00000000        0x0
 .text          0x00000000        0x0 c:/program files/microchip/xc32/v2.41/bin/bin/../../lib/gcc/pic32mx/4.8.3/../../../../pic32mx/lib\libpic32.a(sbrk.o)

.text%z323      0x00000000        0x0
 .text          0x00000000        0x0 c:/program files/microchip/xc32/v2.41/bin/bin/../../lib/gcc/pic32mx/4.8.3/../../../../pic32mx/lib\libc.a(strncpy.o)

.text%z324      0x00000000        0x0
 .text          0x00000000        0x0 c:/program files/microchip/xc32/v2.41/bin/bin/../../lib/gcc/pic32mx/4.8.3/../../../../pic32mx/lib\libc.a(malloc.o)

.text%z325      0x00000000        0x0
 .text          0x00000000        0x0 c:/program files/microchip/xc32/v2.41/bin/bin/../../lib/gcc/pic32mx/4.8.3/../../../../pic32mx/lib\libc.a(calloc.o)

.text%z326      0x00000000        0x0
 .text          0x00000000        0x0 c:/program files/microchip/xc32/v2.41/bin/bin/../../lib/gcc/pic32mx/4.8.3/../../../../pic32mx/lib\libpic32.a(defaultinterrupt.o)

.text%z327      0x00000000        0x0
 .text          0x00000000        0x0 c:/program files/microchip/xc32/v2.41/bin/bin/../../lib/gcc/pic32mx/4.8.3/../../../../pic32mx/lib\libpic32.a(vector51.o)

.text%z328      0x00000000        0x0
 .text          0x00000000        0x0 c:/program files/microchip/xc32/v2.41/bin/bin/../../lib/gcc/pic32mx/4.8.3/../../../../pic32mx/lib\libpic32.a(vector50.o)

.text%z329      0x00000000        0x0
 .text          0x00000000        0x0 c:/program files/microchip/xc32/v2.41/bin/bin/../../lib/gcc/pic32mx/4.8.3/../../../../pic32mx/lib\libpic32.a(vector49.o)

.text%z330      0x00000000        0x0
 .text          0x00000000        0x0 c:/program files/microchip/xc32/v2.41/bin/bin/../../lib/gcc/pic32mx/4.8.3/../../../../pic32mx/lib\libpic32.a(vector48.o)

.text%z331      0x00000000        0x0
 .text          0x00000000        0x0 c:/program files/microchip/xc32/v2.41/bin/bin/../../lib/gcc/pic32mx/4.8.3/../../../../pic32mx/lib\libpic32.a(vector47.o)

.text%z332      0x00000000        0x0
 .text          0x00000000        0x0 c:/program files/microchip/xc32/v2.41/bin/bin/../../lib/gcc/pic32mx/4.8.3/../../../../pic32mx/lib\libpic32.a(vector46.o)

.text%z333      0x00000000        0x0
 .text          0x00000000        0x0 c:/program files/microchip/xc32/v2.41/bin/bin/../../lib/gcc/pic32mx/4.8.3/../../../../pic32mx/lib\libpic32.a(vector45.o)

.text%z334      0x00000000        0x0
 .text          0x00000000        0x0 c:/program files/microchip/xc32/v2.41/bin/bin/../../lib/gcc/pic32mx/4.8.3/../../../../pic32mx/lib\libpic32.a(vector44.o)

.text%z335      0x00000000        0x0
 .text          0x00000000        0x0 c:/program files/microchip/xc32/v2.41/bin/bin/../../lib/gcc/pic32mx/4.8.3/../../../../pic32mx/lib\libpic32.a(vector43.o)

.text%z336      0x00000000        0x0
 .text          0x00000000        0x0 c:/program files/microchip/xc32/v2.41/bin/bin/../../lib/gcc/pic32mx/4.8.3/../../../../pic32mx/lib\libpic32.a(vector42.o)

.text%z337      0x00000000        0x0
 .text          0x00000000        0x0 c:/program files/microchip/xc32/v2.41/bin/bin/../../lib/gcc/pic32mx/4.8.3/../../../../pic32mx/lib\libpic32.a(vector41.o)

.text%z338      0x00000000        0x0
 .text          0x00000000        0x0 c:/program files/microchip/xc32/v2.41/bin/bin/../../lib/gcc/pic32mx/4.8.3/../../../../pic32mx/lib\libpic32.a(vector40.o)

.text%z339      0x00000000        0x0
 .text          0x00000000        0x0 c:/program files/microchip/xc32/v2.41/bin/bin/../../lib/gcc/pic32mx/4.8.3/../../../../pic32mx/lib\libpic32.a(vector39.o)

.text%z340      0x00000000        0x0
 .text          0x00000000        0x0 c:/program files/microchip/xc32/v2.41/bin/bin/../../lib/gcc/pic32mx/4.8.3/../../../../pic32mx/lib\libpic32.a(vector38.o)

.text%z341      0x00000000        0x0
 .text          0x00000000        0x0 c:/program files/microchip/xc32/v2.41/bin/bin/../../lib/gcc/pic32mx/4.8.3/../../../../pic32mx/lib\libpic32.a(vector37.o)

.text%z342      0x00000000        0x0
 .text          0x00000000        0x0 c:/program files/microchip/xc32/v2.41/bin/bin/../../lib/gcc/pic32mx/4.8.3/../../../../pic32mx/lib\libpic32.a(vector36.o)

.text%z343      0x00000000        0x0
 .text          0x00000000        0x0 c:/program files/microchip/xc32/v2.41/bin/bin/../../lib/gcc/pic32mx/4.8.3/../../../../pic32mx/lib\libpic32.a(vector35.o)

.text%z344      0x00000000        0x0
 .text          0x00000000        0x0 c:/program files/microchip/xc32/v2.41/bin/bin/../../lib/gcc/pic32mx/4.8.3/../../../../pic32mx/lib\libpic32.a(vector34.o)

.text%z345      0x00000000        0x0
 .text          0x00000000        0x0 c:/program files/microchip/xc32/v2.41/bin/bin/../../lib/gcc/pic32mx/4.8.3/../../../../pic32mx/lib\libpic32.a(vector33.o)

.text%z346      0x00000000        0x0
 .text          0x00000000        0x0 c:/program files/microchip/xc32/v2.41/bin/bin/../../lib/gcc/pic32mx/4.8.3/../../../../pic32mx/lib\libpic32.a(vector32.o)

.text%z347      0x00000000        0x0
 .text          0x00000000        0x0 c:/program files/microchip/xc32/v2.41/bin/bin/../../lib/gcc/pic32mx/4.8.3/../../../../pic32mx/lib\libpic32.a(vector31.o)

.text%z348      0x00000000        0x0
 .text          0x00000000        0x0 c:/program files/microchip/xc32/v2.41/bin/bin/../../lib/gcc/pic32mx/4.8.3/../../../../pic32mx/lib\libpic32.a(vector30.o)

.text%z349      0x00000000        0x0
 .text          0x00000000        0x0 c:/program files/microchip/xc32/v2.41/bin/bin/../../lib/gcc/pic32mx/4.8.3/../../../../pic32mx/lib\libpic32.a(vector29.o)

.text%z350      0x00000000        0x0
 .text          0x00000000        0x0 c:/program files/microchip/xc32/v2.41/bin/bin/../../lib/gcc/pic32mx/4.8.3/../../../../pic32mx/lib\libpic32.a(vector28.o)

.text%z351      0x00000000        0x0
 .text          0x00000000        0x0 c:/program files/microchip/xc32/v2.41/bin/bin/../../lib/gcc/pic32mx/4.8.3/../../../../pic32mx/lib\libpic32.a(vector27.o)

.text%z352      0x00000000        0x0
 .text          0x00000000        0x0 c:/program files/microchip/xc32/v2.41/bin/bin/../../lib/gcc/pic32mx/4.8.3/../../../../pic32mx/lib\libpic32.a(vector26.o)

.text%z353      0x00000000        0x0
 .text          0x00000000        0x0 c:/program files/microchip/xc32/v2.41/bin/bin/../../lib/gcc/pic32mx/4.8.3/../../../../pic32mx/lib\libpic32.a(vector25.o)

.text%z354      0x00000000        0x0
 .text          0x00000000        0x0 c:/program files/microchip/xc32/v2.41/bin/bin/../../lib/gcc/pic32mx/4.8.3/../../../../pic32mx/lib\libpic32.a(vector24.o)

.text%z355      0x00000000        0x0
 .text          0x00000000        0x0 c:/program files/microchip/xc32/v2.41/bin/bin/../../lib/gcc/pic32mx/4.8.3/../../../../pic32mx/lib\libpic32.a(vector23.o)

.text%z356      0x00000000        0x0
 .text          0x00000000        0x0 c:/program files/microchip/xc32/v2.41/bin/bin/../../lib/gcc/pic32mx/4.8.3/../../../../pic32mx/lib\libpic32.a(vector22.o)

.text%z357      0x00000000        0x0
 .text          0x00000000        0x0 c:/program files/microchip/xc32/v2.41/bin/bin/../../lib/gcc/pic32mx/4.8.3/../../../../pic32mx/lib\libpic32.a(vector21.o)

.text%z358      0x00000000        0x0
 .text          0x00000000        0x0 c:/program files/microchip/xc32/v2.41/bin/bin/../../lib/gcc/pic32mx/4.8.3/../../../../pic32mx/lib\libpic32.a(vector20.o)

.text%z359      0x00000000        0x0
 .text          0x00000000        0x0 c:/program files/microchip/xc32/v2.41/bin/bin/../../lib/gcc/pic32mx/4.8.3/../../../../pic32mx/lib\libpic32.a(vector19.o)

.text%z360      0x00000000        0x0
 .text          0x00000000        0x0 c:/program files/microchip/xc32/v2.41/bin/bin/../../lib/gcc/pic32mx/4.8.3/../../../../pic32mx/lib\libpic32.a(vector18.o)

.text%z361      0x00000000        0x0
 .text          0x00000000        0x0 c:/program files/microchip/xc32/v2.41/bin/bin/../../lib/gcc/pic32mx/4.8.3/../../../../pic32mx/lib\libpic32.a(vector17.o)

.text%z362      0x00000000        0x0
 .text          0x00000000        0x0 c:/program files/microchip/xc32/v2.41/bin/bin/../../lib/gcc/pic32mx/4.8.3/../../../../pic32mx/lib\libpic32.a(vector16.o)

.text%z363      0x00000000        0x0
 .text          0x00000000        0x0 c:/program files/microchip/xc32/v2.41/bin/bin/../../lib/gcc/pic32mx/4.8.3/../../../../pic32mx/lib\libpic32.a(vector15.o)

.text%z364      0x00000000        0x0
 .text          0x00000000        0x0 c:/program files/microchip/xc32/v2.41/bin/bin/../../lib/gcc/pic32mx/4.8.3/../../../../pic32mx/lib\libpic32.a(vector14.o)

.text%z365      0x00000000        0x0
 .text          0x00000000        0x0 c:/program files/microchip/xc32/v2.41/bin/bin/../../lib/gcc/pic32mx/4.8.3/../../../../pic32mx/lib\libpic32.a(vector13.o)

.text%z366      0x00000000        0x0
 .text          0x00000000        0x0 c:/program files/microchip/xc32/v2.41/bin/bin/../../lib/gcc/pic32mx/4.8.3/../../../../pic32mx/lib\libpic32.a(vector12.o)

.text%z367      0x00000000        0x0
 .text          0x00000000        0x0 c:/program files/microchip/xc32/v2.41/bin/bin/../../lib/gcc/pic32mx/4.8.3/../../../../pic32mx/lib\libpic32.a(vector11.o)

.text%z368      0x00000000        0x0
 .text          0x00000000        0x0 c:/program files/microchip/xc32/v2.41/bin/bin/../../lib/gcc/pic32mx/4.8.3/../../../../pic32mx/lib\libpic32.a(vector10.o)

.text%z369      0x00000000        0x0
 .text          0x00000000        0x0 c:/program files/microchip/xc32/v2.41/bin/bin/../../lib/gcc/pic32mx/4.8.3/../../../../pic32mx/lib\libpic32.a(vector9.o)

.text%z370      0x00000000        0x0
 .text          0x00000000        0x0 c:/program files/microchip/xc32/v2.41/bin/bin/../../lib/gcc/pic32mx/4.8.3/../../../../pic32mx/lib\libpic32.a(vector8.o)

.text%z371      0x00000000        0x0
 .text          0x00000000        0x0 c:/program files/microchip/xc32/v2.41/bin/bin/../../lib/gcc/pic32mx/4.8.3/../../../../pic32mx/lib\libpic32.a(vector7.o)

.text%z372      0x00000000        0x0
 .text          0x00000000        0x0 c:/program files/microchip/xc32/v2.41/bin/bin/../../lib/gcc/pic32mx/4.8.3/../../../../pic32mx/lib\libpic32.a(vector6.o)

.text%z373      0x00000000        0x0
 .text          0x00000000        0x0 c:/program files/microchip/xc32/v2.41/bin/bin/../../lib/gcc/pic32mx/4.8.3/../../../../pic32mx/lib\libpic32.a(vector5.o)

.text%z374      0x00000000        0x0
 .text          0x00000000        0x0 c:/program files/microchip/xc32/v2.41/bin/bin/../../lib/gcc/pic32mx/4.8.3/../../../../pic32mx/lib\libpic32.a(vector3.o)

.text%z375      0x00000000        0x0
 .text          0x00000000        0x0 c:/program files/microchip/xc32/v2.41/bin/bin/../../lib/gcc/pic32mx/4.8.3/../../../../pic32mx/lib\libpic32.a(vector2.o)

.text%z376      0x00000000        0x0
 .text          0x00000000        0x0 c:/program files/microchip/xc32/v2.41/bin/bin/../../lib/gcc/pic32mx/4.8.3/../../../../pic32mx/lib\libpic32.a(vector1.o)

.text%z377      0x00000000        0x0
 .text          0x00000000        0x0 c:/program files/microchip/xc32/v2.41/bin/bin/../../lib/gcc/pic32mx/4.8.3/../../../../pic32mx/lib\libpic32.a(vector0.o)

.text%z378      0x00000000        0x0
 .text          0x00000000        0x0 c:/program files/microchip/xc32/v2.41/bin/bin/../../lib/gcc/pic32mx/4.8.3/../../../../pic32mx/lib\libpic32.a(general-exception.o)

.text%z379      0x00000000        0x0
 .text          0x00000000        0x0 c:/program files/microchip/xc32/v2.41/bin/bin/../../lib/gcc/pic32mx/4.8.3/../../../../pic32mx/lib\libpic32.a(default-on-bootstrap.o)

.text%z380      0x00000000        0x0
 .text          0x00000000        0x0 c:/program files/microchip/xc32/v2.41/bin/bin/../../lib/gcc/pic32mx/4.8.3/../../../../pic32mx/lib\libpic32.a(default-on-reset.o)

.text%z381      0x00000000        0x0
 .text          0x00000000        0x0 c:/program files/microchip/xc32/v2.41/bin/bin/../../lib/gcc/pic32mx/4.8.3/../../../../pic32mx/lib\libpic32.a(default-bootstrap-exception-handler.o)

.text%z382      0x00000000        0x0
 .text          0x00000000        0x0 c:/program files/microchip/xc32/v2.41/bin/bin/../../lib/gcc/pic32mx/4.8.3/../../../../pic32mx/lib\libmchp_peripheral_32MX795F512L.a(int_enable_interrupts_lib.o)

.text%z383      0x00000000        0x0
 .text          0x00000000        0x0 c:/program files/microchip/xc32/v2.41/bin/bin/../../lib/gcc/pic32mx/4.8.3/../../../../pic32mx/lib\libmchp_peripheral_32MX795F512L.a(_ports_tbl_libp.o)

.text%z384      0x00000000        0x0
 .text          0x00000000        0x0 c:/program files/microchip/xc32/v2.41/bin/bin/../../lib/gcc/pic32mx/4.8.3/../../../../pic32mx/lib\libmchp_peripheral_32MX795F512L.a(port_set_bits_lib.o)

.text%z385      0x00000000        0x0
 .text          0x00000000        0x0 c:/program files/microchip/xc32/v2.41/bin/bin/../../lib/gcc/pic32mx/4.8.3/../../../../pic32mx/lib\libmchp_peripheral_32MX795F512L.a(port_clear_bits_lib.o)

.text%z386      0x00000000        0x0
 .text          0x00000000        0x0 c:/program files/microchip/xc32/v2.41/bin/bin/../../lib/gcc/pic32mx/4.8.3/../../../../pic32mx/lib\libmchp_peripheral_32MX795F512L.a(port_set_pins_digital_out_lib.o)

.text%z387      0x00000000        0x0
 .text          0x00000000        0x0 c:/program files/microchip/xc32/v2.41/bin/bin/../../lib/gcc/pic32mx/4.8.3/../../../../pic32mx/lib\libmchp_peripheral_32MX795F512L.a(port_set_pins_digital_in_lib.o)

.text%z388      0x00000000        0x0
 .text          0x00000000        0x0 c:/program files/microchip/xc32/v2.41/bin/bin/../../lib/gcc/pic32mx/4.8.3/../../../../pic32mx/lib\libmchp_peripheral_32MX795F512L.a(int_tbl_lib.o)

.text%z389      0x00000000        0x0
 .text          0x00000000        0x0 c:/program files/microchip/xc32/v2.41/bin/bin/../../lib/gcc/pic32mx/4.8.3/../../../../pic32mx/lib\libmchp_peripheral_32MX795F512L.a(int_enable_mv_int_lib.o)

.text%z390      0x00000000        0x0
 .text          0x00000000        0x0 c:/program files/microchip/xc32/v2.41/bin/bin/../../lib/gcc/pic32mx/4.8.3/../../../../pic32mx/lib\libmchp_peripheral_32MX795F512L.a(int_restore_interrupts_lib.o)

.text%z391      0x00000000        0x0
 .text          0x00000000        0x0 c:/program files/microchip/xc32/v2.41/bin/bin/../../lib/gcc/pic32mx/4.8.3/../../../../pic32mx/lib\libmchp_peripheral_32MX795F512L.a(int_disable_interrupts_lib.o)

.text%z392      0x00000000        0x0
 .text          0x00000000        0x0 c:/program files/microchip/xc32/v2.41/bin/bin/../../lib/gcc/pic32mx/4.8.3/../../../../pic32mx/lib\libmchp_peripheral_32MX795F512L.a(pcache.o)

.text%z393      0x00000000        0x0
 .text          0x00000000        0x0 c:/program files/microchip/xc32/v2.41/bin/bin/../../lib/gcc/pic32mx/4.8.3/../../../../pic32mx/lib\libmchp_peripheral_32MX795F512L.a(eth_miim_access.o)

.text%z394      0x00000000        0x0
 .text          0x00000000        0x0 c:/program files/microchip/xc32/v2.41/bin/bin/../../lib/gcc/pic32mx/4.8.3/../../../../pic32mx/lib\libmchp_peripheral_32MX795F512L.a(_eth_append_busy_list_lib.o)

.text%z395      0x00000000        0x0
 .text          0x00000000        0x0 c:/program files/microchip/xc32/v2.41/bin/bin/../../lib/gcc/pic32mx/4.8.3/../../../../pic32mx/lib\libmchp_peripheral_32MX795F512L.a(eth_tx_packet_lib.o)

.text%z396      0x00000000        0x0
 .text          0x00000000        0x0 c:/program files/microchip/xc32/v2.41/bin/bin/../../lib/gcc/pic32mx/4.8.3/../../../../pic32mx/lib\libmchp_peripheral_32MX795F512L.a(eth_rx_set_buffer_size_lib.o)

.text%z397      0x00000000        0x0
 .text          0x00000000        0x0 c:/program files/microchip/xc32/v2.41/bin/bin/../../lib/gcc/pic32mx/4.8.3/../../../../pic32mx/lib\libmchp_peripheral_32MX795F512L.a(eth_rx_get_packet_lib.o)

.text%z398      0x00000000        0x0
 .text          0x00000000        0x0 c:/program files/microchip/xc32/v2.41/bin/bin/../../lib/gcc/pic32mx/4.8.3/../../../../pic32mx/lib\libmchp_peripheral_32MX795F512L.a(eth_rx_filters_lib.o)

.text%z399      0x00000000        0x0
 .text          0x00000000        0x0 c:/program files/microchip/xc32/v2.41/bin/bin/../../lib/gcc/pic32mx/4.8.3/../../../../pic32mx/lib\libmchp_peripheral_32MX795F512L.a(eth_rx_buffers_append_lib.o)

.text%z400      0x00000000        0x0
 .text          0x00000000        0x0 c:/program files/microchip/xc32/v2.41/bin/bin/../../lib/gcc/pic32mx/4.8.3/../../../../pic32mx/lib\libmchp_peripheral_32MX795F512L.a(eth_mac_set_address_max_lib.o)

.text%z401      0x00000000        0x0
 .text          0x00000000        0x0 c:/program files/microchip/xc32/v2.41/bin/bin/../../lib/gcc/pic32mx/4.8.3/../../../../pic32mx/lib\libmchp_peripheral_32MX795F512L.a(eth_mac_open_lib.o)

.text%z402      0x00000000        0x0
 .text          0x00000000        0x0 c:/program files/microchip/xc32/v2.41/bin/bin/../../lib/gcc/pic32mx/4.8.3/../../../../pic32mx/lib\libmchp_peripheral_32MX795F512L.a(eth_init_lib.o)

.text%z403      0x00000000        0x0
 .text          0x00000000        0x0 c:/program files/microchip/xc32/v2.41/bin/bin/../../lib/gcc/pic32mx/4.8.3/../../../../pic32mx/lib\libmchp_peripheral_32MX795F512L.a(eth_descriptors_add_lib.o)

.text%z404      0x00000000        0x0
 .text          0x00000000        0x0 c:/program files/microchip/xc32/v2.41/bin/bin/../../lib/gcc/pic32mx/4.8.3/../../../../pic32mx/lib\libmchp_peripheral_32MX795F512L.a(eth_ack_packet_lib.o)

.text%z405      0x00000000        0x0
 .text          0x00000000        0x0 c:/program files/microchip/xc32/v2.41/bin/bin/../../lib/gcc/pic32mx/4.8.3/../../../../pic32mx/lib\libmchp_peripheral.a(read_core_timer_lib.o)

.text%z406      0x00000000        0x0
 .text          0x00000000        0x0 c:/program files/microchip/xc32/v2.41/bin/bin/../../lib/gcc/pic32mx/4.8.3/../../../../pic32mx/lib/./proc/32MX795F512L\processor.o

.text%z407      0x00000000        0x0
 .text          0x00000000        0x0 C:\Users\kamer\AppData\Local\Temp\ccmieHzo.o

.text%z408      0x00000000        0x0
 .text          0x00000000        0x0 C:\Users\kamer\AppData\Local\Temp\ccWP2f57.o

.text%z409      0x00000000        0x0
 .text          0x00000000        0x0 C:\Users\kamer\AppData\Local\Temp\ccD0dtMf.o

.text%z410      0x00000000        0x0
 .text          0x00000000        0x0 build/default/production/_ext/1472/CustomSSLCert.o

.text%z411      0x00000000        0x0
 .text          0x00000000        0x0 build/default/production/_ext/1472/CustomSNMPApp.o

.text%z412      0x00000000        0x0
 .text          0x00000000        0x0 build/default/production/_ext/1472/CustomHTTPApp.o

.text%z413      0x00000000        0x0
 .text          0x00000000        0x0 build/default/production/_ext/536368125/ZeroconfMulticastDNS.o

.text%z414      0x00000000        0x0
 .text          0x00000000        0x0 build/default/production/_ext/536368125/ZeroconfLinkLocal.o

.text%z415      0x00000000        0x0
 .text          0x00000000        0x0 build/default/production/_ext/536368125/ZeroconfHelper.o

.text%z416      0x00000000        0x0
 .text          0x00000000        0x0 build/default/production/_ext/536368125/UDPPerformanceTest.o

.text%z417      0x00000000        0x0
 .text          0x00000000        0x0 build/default/production/_ext/536368125/UART2TCPBridge.o

.text%z418      0x00000000        0x0
 .text          0x00000000        0x0 build/default/production/_ext/536368125/UART.o

.text%z419      0x00000000        0x0
 .text          0x00000000        0x0 build/default/production/_ext/536368125/TFTPc.o

.text%z420      0x00000000        0x0
 .text          0x00000000        0x0 build/default/production/_ext/536368125/TCPPerformanceTest.o

.text%z421      0x00000000        0x0
 .text          0x00000000        0x0 build/default/production/_ext/536368125/SSL.o

.text%z422      0x00000000        0x0
 .text          0x00000000        0x0 build/default/production/_ext/536368125/SPIRAM.o

.text%z423      0x00000000        0x0
 .text          0x00000000        0x0 build/default/production/_ext/536368125/SPIFlash.o

.text%z424      0x00000000        0x0
 .text          0x00000000        0x0 build/default/production/_ext/536368125/SPIEEPROM.o

.text%z425      0x00000000        0x0
 .text          0x00000000        0x0 build/default/production/_ext/536368125/SNTP.o

.text%z426      0x00000000        0x0
 .text          0x00000000        0x0 build/default/production/_ext/536368125/SNMPv3USM.o

.text%z427      0x00000000        0x0
 .text          0x00000000        0x0 build/default/production/_ext/536368125/SNMPv3.o

.text%z428      0x00000000        0x0
 .text          0x00000000        0x0 build/default/production/_ext/536368125/SNMP.o

.text%z429      0x00000000        0x0
 .text          0x00000000        0x0 build/default/production/_ext/536368125/SMTP.o

.text%z430      0x00000000        0x0
 .text          0x00000000        0x0 build/default/production/_ext/536368125/Reboot.o

.text%z431      0x00000000        0x0
 .text          0x00000000        0x0 build/default/production/_ext/536368125/Random.o

.text%z432      0x00000000        0x0
 .text          0x00000000        0x0 build/default/production/_ext/536368125/RSA.o

.text%z433      0x00000000        0x0
 .text          0x00000000        0x0 build/default/production/_ext/536368125/NBNS.o

.text%z434      0x00000000        0x0
 .text          0x00000000        0x0 build/default/production/_ext/536368125/MPFS2.o

.text%z435      0x00000000        0x0
 .text          0x00000000        0x0 build/default/production/_ext/536368125/LCDBlocking.o

.text%z436      0x00000000        0x0
 .text          0x00000000        0x0 build/default/production/_ext/536368125/Hashes.o

.text%z437      0x00000000        0x0
 .text          0x00000000        0x0 build/default/production/_ext/536368125/HTTP2.o

.text%z438      0x00000000        0x0
 .text          0x00000000        0x0 build/default/production/_ext/536368125/FileSystem.o

.text%z439      0x00000000        0x0
 .text          0x00000000        0x0 build/default/production/_ext/536368125/FTP.o

.text%z440      0x00000000        0x0
 .text          0x00000000        0x0 build/default/production/_ext/536368125/ENCX24J600.o

.text%z441      0x00000000        0x0
 .text          0x00000000        0x0 build/default/production/_ext/536368125/ENC28J60.o

.text%z442      0x00000000        0x0
 .text          0x00000000        0x0 build/default/production/_ext/536368125/DynDNS.o

.text%z443      0x00000000        0x0
 .text          0x00000000        0x0 build/default/production/_ext/536368125/DNSs.o

.text%z444      0x00000000        0x0
 .text          0x00000000        0x0 build/default/production/_ext/536368125/DHCP.o

.text%z445      0x00000000        0x0
 .text          0x00000000        0x0 build/default/production/_ext/536368125/BigInt_helper_PIC32.o

.text%z446      0x00000000        0x0
 .text          0x00000000        0x0 build/default/production/_ext/536368125/BigInt.o

.text%z447      0x00000000        0x0
 .text          0x00000000        0x0 build/default/production/_ext/536368125/BerkeleyAPI.o

.text%z448      0x00000000        0x0
 .text          0x00000000        0x0 build/default/production/_ext/536368125/AutoIP.o

.text%z449      0x00000000        0x0
 .text          0x00000000        0x0 build/default/production/_ext/536368125/ARCFOUR.o

.text%z450      0x00000000        0x0
 .text          0x00000000        0x0 build/default/production/_ext/1472/UARTConfig.o

.text%z451      0x00000000        0x0
 .text          0x00000000        0x0 build/default/production/_ext/1472/SMTPDemo.o

.text%z452      0x00000000        0x0
 .text          0x00000000        0x0 build/default/production/_ext/1472/PingDemo.o

.text%z453      0x00000000        0x0
 .text          0x00000000        0x0 build/default/production/_ext/1472/BerkeleyUDPClientDemo.o

.text%z454      0x00000000        0x0
 .text          0x00000000        0x0 build/default/production/_ext/1472/BerkeleyTCPServerDemo.o

.text%z455      0x00000000        0x0
 .text          0x00000000        0x0 build/default/production/_ext/1472/BerkeleyTCPClientDemo.o

.text%z456      0x00000000        0x0
 .text          0x00000000        0x0 c:/program files/microchip/xc32/v2.41/bin/bin/../../lib/gcc/pic32mx/4.8.3/../../../../pic32mx/lib\debug-exception-return.o
